BL51 BANKED LINKER/LOCATER V6.22.2.0                                                    07/08/2024  03:11:28  PAGE 1


BL51 BANKED LINKER/LOCATER V6.22.2.0, INVOKED BY:
C:\PROGRAM FILES (X86)\KEIL_V5\C51\BIN\BL51.EXE .\Objects\os_api.obj, .\Objects\os_debug.obj, .\Objects\os_handler.obj, 
>> .\Objects\os_main.obj, .\Objects\os_starter.obj, .\Objects\os_sysidle.obj, .\Objects\os_taskmgr.obj, .\Objects\os_tim
>> ing.obj, .\Objects\os_var.obj, .\Objects\sv_int_loc.obj, .\Objects\sv_int_pend_fifo.obj, .\Objects\sv_int_pend_flag.o
>> bj, .\Objects\sv_task.obj, .\Objects\sv_tick.obj, .\Objects\gvar_hook.obj, .\Objects\idle_hook.obj, .\Objects\init_ho
>> ok.obj, .\Objects\pendsv_hook.obj, .\Objects\start_hook.obj, .\Objects\tick_hook.obj, .\Objects\port_8051.obj, .\Obje
>> cts\port_8051s.obj, .\Objects\startup_8051.obj, .\Objects\Taskmgr.obj, .\Objects\led.obj, .\Objects\test_xwtb_ressus.
>> obj, .\Objects\test_xwtb_clrblk.obj, .\Objects\test_xwtb_bin.obj, .\Objects\test_xwtb_sem.obj, .\Objects\test_xwtb_gr
>> oup.obj, .\Objects\test_xwtb_fetion.obj, .\Objects\test_xwtb_taskmsg.obj, .\Objects\test_xwtb_mailbox.obj, .\Objects\
>> test_xwtb_queue.obj, .\Objects\test_int0delay.obj, .\Objects\hmacmd5.obj, .\Objects\test_malloc.obj, .\Objects\test_c
>> 51xbp.obj TO .\Objects\CosyOS-II-STC8H PRINT (.\Listings\CosyOS-II-STC8H.m51) RAMSIZE (256) NOOVERLAY


MEMORY MODEL: LARGE


INPUT MODULES INCLUDED:
  .\Objects\os_api.obj (OS_API)
  .\Objects\os_debug.obj (OS_DEBUG)
  .\Objects\os_handler.obj (OS_HANDLER)
  .\Objects\os_main.obj (OS_MAIN)
  .\Objects\os_starter.obj (OS_STARTER)
  .\Objects\os_sysidle.obj (OS_SYSIDLE)
  .\Objects\os_taskmgr.obj (OS_TASKMGR)
  .\Objects\os_timing.obj (OS_TIMING)
  .\Objects\os_var.obj (OS_VAR)
  .\Objects\sv_int_loc.obj (SV_INT_LOC)
  .\Objects\sv_int_pend_fifo.obj (SV_INT_PEND_FIFO)
  .\Objects\sv_int_pend_flag.obj (SV_INT_PEND_FLAG)
  .\Objects\sv_task.obj (SV_TASK)
  .\Objects\sv_tick.obj (SV_TICK)
  .\Objects\gvar_hook.obj (GVAR_HOOK)
  .\Objects\idle_hook.obj (IDLE_HOOK)
  .\Objects\init_hook.obj (INIT_HOOK)
  .\Objects\pendsv_hook.obj (PENDSV_HOOK)
  .\Objects\start_hook.obj (START_HOOK)
  .\Objects\tick_hook.obj (TICK_HOOK)
  .\Objects\port_8051.obj (PORT_8051)
  .\Objects\port_8051s.obj (PORT_8051S)
  .\Objects\startup_8051.obj (?C_STARTUP)
  .\Objects\Taskmgr.obj (TASKMGR)
  .\Objects\led.obj (LED)
  .\Objects\test_xwtb_ressus.obj (TEST_XWTB_RESSUS)
  .\Objects\test_xwtb_clrblk.obj (TEST_XWTB_CLRBLK)
  .\Objects\test_xwtb_bin.obj (TEST_XWTB_BIN)
  .\Objects\test_xwtb_sem.obj (TEST_XWTB_SEM)
  .\Objects\test_xwtb_group.obj (TEST_XWTB_GROUP)
  .\Objects\test_xwtb_fetion.obj (TEST_XWTB_FETION)
  .\Objects\test_xwtb_taskmsg.obj (TEST_XWTB_TASKMSG)
  .\Objects\test_xwtb_mailbox.obj (TEST_XWTB_MAILBOX)
  .\Objects\test_xwtb_queue.obj (TEST_XWTB_QUEUE)
  .\Objects\test_int0delay.obj (TEST_INT0DELAY)
  .\Objects\hmacmd5.obj (HMACMD5)
  .\Objects\test_malloc.obj (TEST_MALLOC)
  .\Objects\test_c51xbp.obj (TEST_C51XBP)
  C:\PROGRAM FILES (X86)\KEIL_V5\C51\LIB\C51L.LIB (?C_INIT)
  C:\PROGRAM FILES (X86)\KEIL_V5\C51\LIB\C51L.LIB (?C?COPY)
  C:\PROGRAM FILES (X86)\KEIL_V5\C51\LIB\C51L.LIB (?C?CLDPTR)
BL51 BANKED LINKER/LOCATER V6.22.2.0                                                  07/08/2024  03:11:28  PAGE 2


  C:\PROGRAM FILES (X86)\KEIL_V5\C51\LIB\C51L.LIB (?C?CLDOPTR)
  C:\PROGRAM FILES (X86)\KEIL_V5\C51\LIB\C51L.LIB (?C?CSTPTR)
  C:\PROGRAM FILES (X86)\KEIL_V5\C51\LIB\C51L.LIB (?C?IMUL)
  C:\PROGRAM FILES (X86)\KEIL_V5\C51\LIB\C51L.LIB (?C?UIDIV)
  C:\PROGRAM FILES (X86)\KEIL_V5\C51\LIB\C51L.LIB (?C?IILDX)
  C:\PROGRAM FILES (X86)\KEIL_V5\C51\LIB\C51L.LIB (?C?ILDIX)
  C:\PROGRAM FILES (X86)\KEIL_V5\C51\LIB\C51L.LIB (?C?LMUL)
  C:\PROGRAM FILES (X86)\KEIL_V5\C51\LIB\C51L.LIB (?C?ULDIV)
  C:\PROGRAM FILES (X86)\KEIL_V5\C51\LIB\C51L.LIB (?C?LNOT)
  C:\PROGRAM FILES (X86)\KEIL_V5\C51\LIB\C51L.LIB (?C?LNEG)
  C:\PROGRAM FILES (X86)\KEIL_V5\C51\LIB\C51L.LIB (?C?ULCMP)
  C:\PROGRAM FILES (X86)\KEIL_V5\C51\LIB\C51L.LIB (?C?LSTXDATA)
  C:\PROGRAM FILES (X86)\KEIL_V5\C51\LIB\C51L.LIB (?C?LSTKXDATA)
  C:\PROGRAM FILES (X86)\KEIL_V5\C51\LIB\C51L.LIB (?C?CCASE)
  C:\PROGRAM FILES (X86)\KEIL_V5\C51\LIB\C51L.LIB (?C?ICALL)
  C:\PROGRAM FILES (X86)\KEIL_V5\C51\LIB\C51L.LIB (?C_XBP)
  C:\PROGRAM FILES (X86)\KEIL_V5\C51\LIB\C51L.LIB (?C?LIMUL)
  C:\PROGRAM FILES (X86)\KEIL_V5\C51\LIB\C51L.LIB (PRINTF)
  C:\PROGRAM FILES (X86)\KEIL_V5\C51\LIB\C51L.LIB (?C?STRCMP)
  C:\PROGRAM FILES (X86)\KEIL_V5\C51\LIB\C51L.LIB (?C?STRCPY)
  C:\PROGRAM FILES (X86)\KEIL_V5\C51\LIB\C51L.LIB (STRLEN)
  C:\PROGRAM FILES (X86)\KEIL_V5\C51\LIB\C51L.LIB (?C?MEMCMP)
  C:\PROGRAM FILES (X86)\KEIL_V5\C51\LIB\C51L.LIB (MALLOC)
  C:\PROGRAM FILES (X86)\KEIL_V5\C51\LIB\C51L.LIB (INIT_MEM)
  C:\PROGRAM FILES (X86)\KEIL_V5\C51\LIB\C51L.LIB (FREE)
  C:\PROGRAM FILES (X86)\KEIL_V5\C51\LIB\C51L.LIB (?C?PLDIXDATA)
  C:\PROGRAM FILES (X86)\KEIL_V5\C51\LIB\C51L.LIB (?C?PSTXDATA)
  C:\PROGRAM FILES (X86)\KEIL_V5\C51\LIB\C51L.LIB (PUTCHAR)


LINK MAP OF MODULE:  .\Objects\CosyOS-II-STC8H (OS_API)


            TYPE    BASE      LENGTH    RELOCATION   SEGMENT NAME
            -----------------------------------------------------

            * * * * * * *   D A T A   M E M O R Y   * * * * * * *
            REG     0000H     0008H     ABSOLUTE     "REG BANK 0"
            DATA    0008H     0013H     UNIT         ?DT?OS_VAR
            DATA    001BH     0005H     UNIT         ?DT?PRINTF?PRINTF
            BIT     0020H.0   0004H.2   UNIT         ?BI?PORT_8051
            BIT     0024H.2   0001H.1   UNIT         ?BI?PRINTF?PRINTF
            BIT     0025H.3   0001H.0   UNIT         ?BI?OS_VAR
            BIT     0026H.3   0000H.1   UNIT         ?BI?SPENDSV_HANDLER?OS_HANDLER
            BIT     0026H.4   0000H.1   UNIT         ?BI?TEST_XWTB_RESSUS
                    0026H.5   0000H.3                *** GAP ***
            DATA    0027H     000BH     UNIT         ?DT?OS_HANDLER
            DATA    0032H     0008H     UNIT         ?DT?SPENDSV_HANDLER?OS_HANDLER
            DATA    003AH     0003H     UNIT         ?DT?OS_SYSTICK_HANDLER?OS_HANDLER
            DATA    003DH     0002H     UNIT         ?DT?OS_TASKMGR
            DATA    003FH     0002H     UNIT         ?DT?PORT_8051
            DATA    0041H     0002H     UNIT         ?C?LIB_DATA
            DATA    0043H     0001H     UNIT         ?DT?SV_TASK
            IDATA   0044H     0001H     UNIT         ?STACK

            * * * * * * *  X D A T A   M E M O R Y  * * * * * * *
            XDATA   0000H     0020H     ABSOLUTE     
BL51 BANKED LINKER/LOCATER V6.22.2.0                                                  07/08/2024  03:11:28  PAGE 3


            XDATA   0020H     00CDH     UNIT         ?XD?TEST_XWTB_RESSUS
            XDATA   00EDH     000EH     UNIT         ?XD?TASKMGR?OS_TASKMGR
            XDATA   00FBH     0005H     UNIT         ?XD?_SI_RECV_MSG?SV_INT_LOC
            XDATA   0100H     0020H     ABSOLUTE     
            XDATA   0120H     0371H     UNIT         ?XD?OS_VAR
            XDATA   0491H     0071H     UNIT         ?XD?OS_TASKMGR
            XDATA   0502H     0043H     UNIT         ?XD?OS_SYSIDLE
            XDATA   0545H     0042H     UNIT         ?XD?OS_DEBUG
            XDATA   0587H     0028H     UNIT         ?XD?PRINTF?PRINTF
            XDATA   05AFH     000CH     UNIT         ?XD?_DEBUG_RECV_?OS_DEBUG
            XDATA   05BBH     000CH     UNIT         ?XD?OS_STARTER
            XDATA   05C7H     000AH     UNIT         ?XD?OS_HANDLER
            XDATA   05D1H     0008H     UNIT         ?XD?__ATOI_?OS_DEBUG
            XDATA   05D9H     0008H     UNIT         ?XD?INIT_MEM
            XDATA   05E1H     0007H     UNIT         ?XD?_SU_RECV_MSG?SV_TASK
            XDATA   05E8H     0007H     UNIT         ?XD?_SU_SEND_MSG?SV_TASK
            XDATA   05EFH     0007H     UNIT         ?XD?_ST_RECV_MSG?SV_TICK
            XDATA   05F6H     0007H     UNIT         ?XD?_ST_SEND_MSG?SV_TICK
            XDATA   05FDH     0006H     UNIT         ?XD?__SEND_MSG_?SV_INT_PEND_FIFO
            XDATA   0603H     0006H     UNIT         ?XD?_MALLOC?MALLOC
            XDATA   0609H     0006H     UNIT         ?XD?_FREE?FREE
            XDATA   060FH     0004H     UNIT         ?XD?__SET_BLOCK_?SV_INT_PEND_FIFO
            XDATA   0613H     0004H     UNIT         ?XD?_SP_SET_BLOCK?SV_INT_PEND_FLAG
            XDATA   0617H     0004H     UNIT         ?XD?_SU_STARTUP_TASK?SV_TASK
            XDATA   061BH     0004H     UNIT         ?XD?_SU_SET_BLOCK?SV_TASK
            XDATA   061FH     0004H     UNIT         ?XD?_SU_INIT_MEMPOOL?SV_TASK
            XDATA   0623H     0004H     UNIT         ?XD?_SU_TALLOC?SV_TASK
            XDATA   0627H     0003H     UNIT         ?XD?__STRCPY_?OS_TASKMGR
            XDATA   062AH     0003H     UNIT         ?XD?__STRLEN_?OS_TASKMGR
            XDATA   062DH     0002H     UNIT         ?XD?__U8STR_?OS_TASKMGR
            XDATA   062FH     0002H     UNIT         ?XD?__U16STR_?OS_TASKMGR
            XDATA   0631H     0002H     UNIT         ?XD?__GROUP_?SV_INT_PEND_FIFO
            XDATA   0633H     0002H     UNIT         ?XD?__GVAR_WRITE_?SV_INT_PEND_FIFO
            XDATA   0635H     0002H     UNIT         ?XD?_SU_RESUME_TASK?SV_TASK
            XDATA   0637H     0002H     UNIT         ?XD?_SU_RESUME_SUSPEND?SV_TASK
            XDATA   0639H     0002H     UNIT         ?XD?_SU_SET_TASKPRI?SV_TASK
            XDATA   063BH     0002H     UNIT         ?XD?_SU_TAKE_MUTEX?SV_TASK
            XDATA   063DH     0002H     UNIT         ?XD?_SU_TAKE_BINARY?SV_TASK
            XDATA   063FH     0002H     UNIT         ?XD?_SU_TAKE_SEMAPHORE?SV_TASK
            XDATA   0641H     0002H     UNIT         ?XD?_SU_RECV_MAIL?SV_TASK
            XDATA   0643H     0002H     UNIT         ?XD?_SU_WAIT_GROUP?SV_TASK
            XDATA   0645H     0002H     UNIT         ?XD?_ST_SET_TASKPRI?SV_TICK
            XDATA   0647H     0001H     UNIT         ?XD?STARTER?OS_STARTER
            XDATA   0648H     0001H     UNIT         ?XD?__SET_TASKPRI_?SV_INT_PEND_FIFO
            XDATA   0649H     0001H     UNIT         ?XD?MPENDSV_FIFOHANDLER?PORT_8051
            XDATA   064AH     0001H     UNIT         ?XD?PORT_8051

            * * * * * * *   C O D E   M E M O R Y   * * * * * * *
            CODE    0000H     0003H     ABSOLUTE     
            CODE    0003H     0003H     ABSOLUTE     
            CODE    0006H     0005H     UNIT         ?PR?SU_ENTER_CRITICAL_ONE?SV_TASK
            CODE    000BH     0003H     ABSOLUTE     
            CODE    000EH     0035H     UNIT         ?PR?_SP_SET_TASKPRI?SV_INT_PEND_FLAG
            CODE    0043H     0003H     ABSOLUTE     
            CODE    0046H     0054H     UNIT         ?PR?__SET_TASKPRI_?SV_INT_PEND_FIFO
            CODE    009AH     0001H     UNIT         ?PR?TICK_HOOK?TICK_HOOK
            CODE    009BH     0003H     ABSOLUTE     
BL51 BANKED LINKER/LOCATER V6.22.2.0                                                  07/08/2024  03:11:28  PAGE 4


            CODE    009EH     13B9H     UNIT         ?PR?SPENDSV_HANDLER?OS_HANDLER
            CODE    1457H     080EH     UNIT         ?C?LIB_CODE
            CODE    1C65H     06CCH     UNIT         ?PR?TASKMGR?OS_TASKMGR
            CODE    2331H     03BFH     UNIT         ?PR?_SU_RECV_MSG?SV_TASK
            CODE    26F0H     0392H     UNIT         ?PR?OS_SYSTICK_HANDLER?OS_HANDLER
            CODE    2A82H     0365H     UNIT         ?PR?PRINTF?PRINTF
            CODE    2DE7H     02FDH     UNIT         ?PR?_ST_RECV_MSG?SV_TICK
            CODE    30E4H     027DH     UNIT         ?PR?MPENDSV_FIFOHANDLER?PORT_8051
            CODE    3361H     0253H     UNIT         ?PR?__SEND_MSG_?SV_INT_PEND_FIFO
            CODE    35B4H     0228H     UNIT         ?PR?_ST_SEND_MSG?SV_TICK
            CODE    37DCH     021FH     UNIT         ?PR?_SU_SEND_MSG?SV_TASK
            CODE    39FBH     01B5H     UNIT         ?C_INITSEG
            CODE    3BB0H     01AEH     UNIT         ?PR?__GROUP_?SV_INT_PEND_FIFO
            CODE    3D5EH     0196H     UNIT         ?PR?_SI_RECV_MSG?SV_INT_LOC
            CODE    3EF4H     013FH     UNIT         ?PR?_FREE?FREE
            CODE    4033H     012FH     UNIT         ?PR?_SU_TAKE_MUTEX?SV_TASK
            CODE    4162H     012FH     UNIT         ?PR?_SU_WAIT_GROUP?SV_TASK
            CODE    4291H     0127H     UNIT         ?PR?__U16STR_?OS_TASKMGR
            CODE    43B8H     010FH     UNIT         ?PR?_DEBUG_RECV_?OS_DEBUG
            CODE    44C7H     0101H     UNIT         ?CO?OS_TASKMGR
            CODE    45C8H     00F1H     UNIT         ?PR?LED_TASK_1?LED
            CODE    46B9H     00E4H     UNIT         ?PR?__ATOI_?OS_DEBUG
            CODE    479DH     00E2H     UNIT         ?PR?S_INIT_TIMING?OS_TIMING
            CODE    487FH     00D1H     UNIT         ?PR?_MALLOC?MALLOC
            CODE    4950H     00CEH     UNIT         ?PR?_SU_TAKE_SEMAPHORE?SV_TASK
            CODE    4A1EH     00BFH     UNIT         ?PR?__USED_RATIO_?OS_TASKMGR
            CODE    4ADDH     00B6H     UNIT         ?PR?_SU_TAKE_BINARY?SV_TASK
            CODE    4B93H     00A9H     UNIT         ?PR?_SU_RECV_MAIL?SV_TASK
            CODE    4C3CH     00A9H     UNIT         ?PR?OS_PENDSV_HANDLER?PORT_8051S
            CODE    4CE5H     00A7H     UNIT         ?PR?_SU_RESUME_SUSPEND?SV_TASK
            CODE    4D8CH     00A2H     UNIT         ?PR?STARTER?OS_STARTER
            CODE    4E2EH     00A0H     UNIT         ?C_C51STARTUP
            CODE    4ECEH     009FH     UNIT         ?PR?MPENDSV_FIFOPREEMPT?PORT_8051S
            CODE    4F6DH     009CH     UNIT         ?PR?_SU_STARTUP_TASK?SV_TASK
            CODE    5009H     0098H     UNIT         ?PR?__GVAR_WRITE_?SV_INT_PEND_FIFO
            CODE    50A1H     0096H     UNIT         ?PR?_S_SET_TASKPRI?OS_API
            CODE    5137H     0089H     UNIT         ?PR?__SET_BLOCK_?SV_INT_PEND_FIFO
            CODE    51C0H     0087H     UNIT         ?PR?__U8STR_?OS_TASKMGR
            CODE    5247H     0082H     UNIT         ?PR?_SU_RESUME_TASK?SV_TASK
            CODE    52C9H     007FH     UNIT         ?PR?_SU_SET_TASKPRI?SV_TASK
            CODE    5348H     007AH     UNIT         ?PR?_SU_SET_BLOCK?SV_TASK
            CODE    53C2H     0076H     UNIT         ?PR?_SU_TALLOC?SV_TASK
            CODE    5438H     0075H     UNIT         ?PR?UART2_ISR?TASKMGR
            CODE    54ADH     006FH     UNIT         ?PR?_SU_SUSPEND_TASK?SV_TASK
            CODE    551CH     006FH     UNIT         ?PR?_ST_SET_TASKPRI?SV_TICK
            CODE    558BH     006EH     UNIT         ?PR?__U8STR16_?OS_TASKMGR
            CODE    55F9H     006BH     UNIT         ?PR?_SU_WAIT_BINARY?SV_TASK
            CODE    5664H     0069H     UNIT         ?PR?MAIN?OS_MAIN
            CODE    56CDH     0069H     UNIT         ?PR?_SP_SET_BLOCK?SV_INT_PEND_FLAG
            CODE    5736H     0064H     UNIT         ?CO?TEST_XWTB_RESSUS
            CODE    579AH     0061H     UNIT         ?PR?TIME_3?TEST_XWTB_RESSUS
            CODE    57FBH     0060H     UNIT         ?PR?_SU_RECV_FETION?SV_TASK
            CODE    585BH     005EH     UNIT         ?PR?_SU_RECV_TASKMSG?SV_TASK
            CODE    58B9H     005BH     UNIT         ?PR?_SU_INIT_MEMPOOL?SV_TASK
            CODE    5914H     0057H     UNIT         ?PR?_ST_SUSPEND_TASK?SV_TICK
            CODE    596BH     0057H     UNIT         ?PR?_ST_RESUME_TASK?SV_TICK
            CODE    59C2H     0051H     UNIT         ?PR?INIT_HOOK?INIT_HOOK
BL51 BANKED LINKER/LOCATER V6.22.2.0                                                  07/08/2024  03:11:28  PAGE 5


            CODE    5A13H     0050H     UNIT         ?PR?_SI_CAN_ACCESS_QUEUE?SV_INT_LOC
            CODE    5A63H     004FH     UNIT         ?PR?__STRCPY_?OS_TASKMGR
            CODE    5AB2H     004DH     UNIT         ?PR?_SU_BACK_MUTEX?SV_TASK
            CODE    5AFFH     004CH     UNIT         ?PR?START_HOOK?TEST_XWTB_RESSUS
            CODE    5B4BH     004AH     UNIT         ?PR?_SU_DELETE_TASK?SV_TASK
            CODE    5B95H     004AH     UNIT         ?PR?_SU_DELAY?SV_TASK
            CODE    5BDFH     0045H     UNIT         ?PR?_SU_CLEAR_BLOCK?SV_TASK
            CODE    5C24H     0044H     UNIT         ?PR?_SU_QUERY_GROUP?SV_TASK
            CODE    5C68H     0043H     UNIT         ?PR?__SEND_MAIL_?SV_INT_PEND_FIFO
            CODE    5CABH     003FH     UNIT         ?PR?__GIVE_SEM_?SV_INT_PEND_FIFO
            CODE    5CEAH     003EH     UNIT         ?PR?_ST_SET_BLOCK?SV_TICK
            CODE    5D28H     003DH     UNIT         ?PR?__CLEAR_BLOCK_?SV_INT_PEND_FIFO
            CODE    5D65H     003DH     UNIT         ?PR?TASK_2?TEST_XWTB_RESSUS
            CODE    5DA2H     003CH     UNIT         ?PR?_INIT_MEMPOOL?INIT_MEM
            CODE    5DDEH     003BH     UNIT         ?PR?_S_SCHEDULE_TASKPRI?OS_API
            CODE    5E19H     003AH     UNIT         ?PR?__TIMINT_?SV_INT_PEND_FIFO
            CODE    5E53H     003AH     UNIT         ?PR?__TIMQRY_?SV_INT_PEND_FIFO
            CODE    5E8DH     0039H     UNIT         ?PR?__SUSPEND_TASK_?SV_INT_PEND_FIFO
            CODE    5EC6H     0038H     UNIT         ?PR?_SU_GIVE_SEMAPHORE?SV_TASK
            CODE    5EFEH     0038H     UNIT         ?PR?_ST_DELETE_TASK?SV_TICK
            CODE    5F36H     0038H     UNIT         ?PR?_ST_CLEAR_BLOCK?SV_TICK
            CODE    5F6EH     0037H     UNIT         ?PR?__DELETE_TASK_?SV_INT_PEND_FIFO
            CODE    5FA5H     0034H     UNIT         ?PR?_SP_CLEAR_BLOCK?SV_INT_PEND_FLAG
            CODE    5FD9H     0033H     UNIT         ?PR?__U16LEN_?OS_TASKMGR
            CODE    600CH     0031H     UNIT         ?CO?OS_DEBUG
            CODE    603DH     0031H     UNIT         ?PR?SU_EXIT_CRITICAL_PSV?SV_TASK
            CODE    606EH     0031H     UNIT         ?PR?LED_TASK_2?LED
            CODE    609FH     0030H     UNIT         ?PR?_SP_SUSPEND_TASK?SV_INT_PEND_FLAG
            CODE    60CFH     002FH     UNIT         ?PR?__FIFO_0_?PORT_8051
            CODE    60FEH     002FH     UNIT         ?PR?__FIFO_1_?PORT_8051
            CODE    612DH     002EH     UNIT         ?PR?_SP_DELETE_TASK?SV_INT_PEND_FLAG
            CODE    615BH     002DH     UNIT         ?PR?TASK_1?TEST_XWTB_RESSUS
            CODE    6188H     002CH     UNIT         ?PR?__STRLEN_?OS_TASKMGR
            CODE    61B4H     002CH     UNIT         ?PR?__RESUME_TASK_?SV_INT_PEND_FIFO
            CODE    61E0H     002CH     UNIT         ?PR?_SU_SEND_MAIL?SV_TASK
            CODE    620CH     0028H     UNIT         ?PR?__BINARY_?SV_INT_PEND_FIFO
            CODE    6234H     0028H     UNIT         ?PR?SU_EXIT_CRITICAL?SV_TASK
            CODE    625CH     0027H     UNIT         ?PR?PUTCHAR?PUTCHAR
            CODE    6283H     0025H     UNIT         ?PR?_ST_GIVE_SEMAPHORE?SV_TICK
            CODE    62A8H     0024H     UNIT         ?PR?__SEND_FETION_?SV_INT_PEND_FIFO
            CODE    62CCH     0023H     UNIT         ?PR?_SP_RESUME_TASK?SV_INT_PEND_FLAG
            CODE    62EFH     0022H     UNIT         ?PR?DEBUG_HOOK?OS_DEBUG
            CODE    6311H     0022H     UNIT         ?CO?SV_INT_PEND_FIFO
            CODE    6333H     001DH     UNIT         ?PR?DEBUGGER?OS_DEBUG
            CODE    6350H     001CH     UNIT         ?PR?_ST_TAKE_SEMAPHORE?SV_TICK
            CODE    636CH     001AH     UNIT         ?PR?_SI_RECV_MAIL?SV_INT_LOC
            CODE    6386H     001AH     UNIT         ?PR?_ST_RECV_MAIL?SV_TICK
            CODE    63A0H     0017H     UNIT         ?PR?_ST_SEND_MAIL?SV_TICK
            CODE    63B7H     0015H     UNIT         ?PR?__SPCCPY_?OS_TASKMGR
            CODE    63CCH     0015H     UNIT         ?PR?_STRLEN?STRLEN
            CODE    63E1H     0013H     UNIT         ?PR?_SU_GIVE_BINARY?SV_TASK
            CODE    63F4H     0012H     UNIT         ?PR?_S_SCHEDULE_TASKMSG?OS_API
            CODE    6406H     0012H     UNIT         ?PR?__SEND_SIGN_?SV_INT_PEND_FIFO
            CODE    6418H     0012H     UNIT         ?PR?_SP_WRITE_BINARY?SV_INT_PEND_FLAG
            CODE    642AH     0012H     UNIT         ?PR?MX_DISABLE_IRQ?PORT_8051
            CODE    643CH     0011H     UNIT         ?PR?PENDSV_HOOK?PENDSV_HOOK
            CODE    644DH     0011H     UNIT         ?PR?_MPENDSV_FIFOLOADER?PORT_8051S
BL51 BANKED LINKER/LOCATER V6.22.2.0                                                  07/08/2024  03:11:28  PAGE 6


            CODE    645EH     0010H     UNIT         ?PR?_S_SCHEDULE_READY?OS_API
            CODE    646EH     000FH     UNIT         ?PR?_SI_TAKE_BINARY?SV_INT_LOC
            CODE    647DH     000FH     UNIT         ?PR?__PENDSVC_?SV_INT_PEND_FIFO
            CODE    648CH     000FH     UNIT         ?PR?_ST_TAKE_BINARY?SV_TICK
            CODE    649BH     000EH     UNIT         ?PR?_S_SCHEDULE_NOTNULL?OS_API
            CODE    64A9H     000DH     UNIT         ?PR?__RECV_FETION_?SV_TASK
            CODE    64B6H     000AH     UNIT         ?PR?U_TIMQRYEVENT_0?OS_DEBUG
            CODE    64C0H     000AH     UNIT         ?PR?SU_TASK_SCHEDULE?SV_TASK
            CODE    64CAH     0009H     UNIT         ?PR?U_TIMQRYEVENT_1?OS_TASKMGR
            CODE    64D3H     0009H     UNIT         ?PR?_SI_RECV_FETION?SV_INT_LOC
            CODE    64DCH     0009H     UNIT         ?PR?_ST_RECV_FETION?SV_TICK
            CODE    64E5H     0008H     UNIT         ?CO?OS_STARTER
            CODE    64EDH     0008H     UNIT         ?CO?OS_SYSIDLE
            CODE    64F5H     0008H     UNIT         ?PR?__RECV_MSG_?SV_INT_LOC
            CODE    64FDH     0008H     UNIT         ?PR?MX_RESUME_IRQ?PORT_8051
            CODE    6505H     0007H     UNIT         ?PR?SI_TASK_SCHEDULE?SV_INT_LOC
            CODE    650CH     0007H     UNIT         ?PR?SU_ENTER_CRITICAL?SV_TASK
            CODE    6513H     0005H     UNIT         ?PR?SU_EXIT_CRITICAL_ONE?SV_TASK
            CODE    6518H     0005H     UNIT         ?PR?__RET_VPTR_?SV_TASK
            CODE    651DH     0004H     UNIT         ?PR?SYSIDLE?OS_SYSIDLE
            CODE    6521H     0003H     UNIT         ?PR?_SU_RETURN_VOIDPTR?SV_TASK
            CODE    6524H     0003H     UNIT         ?PR?_SU_XALLOC?SV_TASK



SYMBOL TABLE OF MODULE:  .\Objects\CosyOS-II-STC8H (OS_API)

  VALUE           TYPE          NAME
  ----------------------------------

  -------         MODULE        OS_API
  C:0000H         SYMBOL        _ICE_DUMMY_
  D:0080H         PUBLIC        P0
  D:0090H         PUBLIC        P1
  D:00A0H         PUBLIC        P2
  D:00B0H         PUBLIC        P3
  D:00C0H         PUBLIC        P4
  C:50A1H         PUBLIC        _s_set_taskpri
  D:00C8H         PUBLIC        P5
  C:63F4H         PUBLIC        _s_schedule_taskmsg
  D:00E8H         PUBLIC        P6
  D:00F8H         PUBLIC        P7
  C:5DDEH         PUBLIC        _s_schedule_taskpri
  D:00A8H         PUBLIC        IE
  C:649BH         PUBLIC        _s_schedule_notnull
  D:00B8H         PUBLIC        IP
  C:645EH         PUBLIC        _s_schedule_ready
  D:0098H         PUBLIC        SCON
  D:0088H         PUBLIC        TCON
  D:00D0H         PUBLIC        PSW
  -------         PROC          _S_SCHEDULE_TASKPRI
  D:0006H         SYMBOL        node
  C:5DDEH         LINE#         16
  C:5DDEH         LINE#         17
  C:5DDEH         LINE#         18
  C:5DFAH         LINE#         19
  C:5E12H         LINE#         20
BL51 BANKED LINKER/LOCATER V6.22.2.0                                                  07/08/2024  03:11:28  PAGE 7


  C:5E16H         LINE#         21
  C:5E16H         LINE#         22
  C:5E18H         LINE#         23
  C:5E18H         LINE#         24
  -------         ENDPROC       _S_SCHEDULE_TASKPRI
  -------         PROC          _S_SCHEDULE_TASKMSG
  D:0006H         SYMBOL        node
  C:63F4H         LINE#         26
  C:63F4H         LINE#         27
  C:63F4H         LINE#         28
  C:6402H         LINE#         29
  C:6405H         LINE#         30
  C:6405H         LINE#         31
  -------         ENDPROC       _S_SCHEDULE_TASKMSG
  -------         PROC          _S_SCHEDULE_NOTNULL
  D:0006H         SYMBOL        node
  C:649BH         LINE#         33
  C:649BH         LINE#         34
  C:649BH         LINE#         35
  C:64A5H         LINE#         36
  C:64A8H         LINE#         37
  C:64A8H         LINE#         38
  -------         ENDPROC       _S_SCHEDULE_NOTNULL
  -------         PROC          _S_SCHEDULE_READY
  D:0006H         SYMBOL        node
  C:645EH         LINE#         40
  C:645EH         LINE#         41
  C:645EH         LINE#         42
  C:646AH         LINE#         43
  C:646DH         LINE#         44
  C:646DH         LINE#         45
  -------         ENDPROC       _S_SCHEDULE_READY
  -------         PROC          _S_SET_TASKPRI
  D:0006H         SYMBOL        node
  C:50A1H         LINE#         47
  C:50A1H         LINE#         48
  C:50A1H         LINE#         49
  C:50C9H         LINE#         50
  C:50F1H         LINE#         51
  C:510BH         LINE#         52
  C:5111H         LINE#         53
  C:5121H         LINE#         54
  C:5130H         LINE#         55
  C:5130H         LINE#         56
  C:5134H         LINE#         57
  C:5136H         LINE#         58
  -------         ENDPROC       _S_SET_TASKPRI
  -------         ENDMOD        OS_API

  -------         MODULE        OS_DEBUG
  C:0000H         SYMBOL        _ICE_DUMMY_
  D:0080H         PUBLIC        P0
  D:0090H         PUBLIC        P1
  D:00A0H         PUBLIC        P2
  D:00B0H         PUBLIC        P3
  D:00C0H         PUBLIC        P4
  D:00C8H         PUBLIC        P5
BL51 BANKED LINKER/LOCATER V6.22.2.0                                                  07/08/2024  03:11:28  PAGE 8


  D:00E8H         PUBLIC        P6
  X:0545H         PUBLIC        u_taskhandle_Debugger
  D:00F8H         PUBLIC        P7
  D:00A8H         PUBLIC        IE
  D:00B8H         PUBLIC        IP
  C:6035H         PUBLIC        u_timinthand_0
  C:62EFH         PUBLIC        debug_hook
  C:6333H         PUBLIC        Debugger
  C:6038H         PUBLIC        u_timqryhand_0
  X:0547H         SYMBOL        u_taskstack_Debugger
  X:0566H         PUBLIC        u_taskhand_Debugger
  D:0098H         PUBLIC        SCON
  D:0088H         PUBLIC        TCON
  C:64B6H         PUBLIC        u_timqryevent_0
  B:00A8H.1       PUBLIC        ET0
  B:00A8H.0       PUBLIC        EX0
  C:43B8H         SYMBOL        _debug_recv_
  D:009AH         PUBLIC        S2CON
  C:46B9H         SYMBOL        __atoi_
  D:00D0H         PUBLIC        PSW
  -------         PROC          __ATOI_
  X:05D1H         SYMBOL        str
  -------         DO            
  X:05D4H         SYMBOL        a
  X:05D6H         SYMBOL        k
  X:05D8H         SYMBOL        i
  -------         ENDDO         
  C:46B9H         LINE#         14
  C:46C4H         LINE#         15
  C:46C4H         LINE#         16
  C:46D7H         LINE#         17
  C:46DAH         LINE#         18
  C:46DAH         LINE#         19
  C:46DAH         LINE#         20
  C:46E1H         LINE#         21
  C:46E6H         LINE#         22
  C:46EEH         LINE#         23
  C:46FBH         LINE#         24
  C:472DH         LINE#         25
  C:474EH         LINE#         26
  C:475DH         LINE#         27
  C:475FH         LINE#         28
  C:477AH         LINE#         29
  C:477CH         LINE#         30
  C:477CH         LINE#         31
  C:4780H         LINE#         32
  C:4790H         LINE#         33
  C:4790H         LINE#         34
  C:4790H         LINE#         35
  C:4794H         LINE#         36
  C:4794H         LINE#         37
  C:4794H         LINE#         38
  C:479CH         LINE#         39
  C:479CH         LINE#         40
  -------         ENDPROC       __ATOI_
  -------         PROC          _DEBUG_RECV_
  -------         DO            
BL51 BANKED LINKER/LOCATER V6.22.2.0                                                  07/08/2024  03:11:28  PAGE 9


  D:0006H         SYMBOL        temp
  X:05AFH         SYMBOL        strtmp
  X:05B7H         SYMBOL        mptr
  X:05B9H         SYMBOL        tptr
  -------         ENDDO         
  C:43B8H         LINE#         45
  C:43B8H         LINE#         46
  C:43B8H         LINE#         50
  C:43C2H         LINE#         51
  C:43DCH         LINE#         52
  C:43F2H         LINE#         53
  C:4404H         LINE#         54
  C:4406H         LINE#         55
  C:4407H         LINE#         56
  C:4419H         LINE#         57
  C:441BH         LINE#         58
  C:441CH         LINE#         59
  C:4435H         LINE#         60
  C:4443H         LINE#         61
  C:446BH         LINE#         62
  C:448AH         LINE#         63
  C:4493H         LINE#         64
  C:44A5H         LINE#         65
  C:44A9H         LINE#         66
  C:44C2H         LINE#         67
  C:44C6H         LINE#         68
  C:44C6H         LINE#         69
  C:44C6H         LINE#         70
  C:44C6H         LINE#         72
  -------         ENDPROC       _DEBUG_RECV_
  -------         PROC          DEBUGGER
  C:6333H         LINE#         74
  C:6333H         LINE#         75
  C:6333H         LINE#         76
  C:633BH         LINE#         77
  C:633EH         LINE#         78
  C:6344H         LINE#         79
  -------         ENDPROC       DEBUGGER
  -------         PROC          U_TIMQRYEVENT_0
  C:64B6H         LINE#         83
  -------         ENDPROC       U_TIMQRYEVENT_0
  -------         PROC          DEBUG_HOOK
  C:62EFH         LINE#         83
  C:62EFH         LINE#         84
  C:62EFH         LINE#         85
  C:62F4H         LINE#         86
  C:62F7H         LINE#         87
  C:62FDH         LINE#         88
  C:62FFH         LINE#         89
  C:6304H         LINE#         90
  C:6307H         LINE#         91
  C:630DH         LINE#         92
  C:630DH         LINE#         93
  C:6310H         LINE#         94
  -------         ENDPROC       DEBUG_HOOK
  -------         ENDMOD        OS_DEBUG

BL51 BANKED LINKER/LOCATER V6.22.2.0                                                  07/08/2024  03:11:28  PAGE 10


  -------         MODULE        OS_HANDLER
  C:0000H         SYMBOL        _ICE_DUMMY_
  D:0080H         PUBLIC        P0
  D:0090H         PUBLIC        P1
  D:00A0H         PUBLIC        P2
  D:00B0H         PUBLIC        P3
  D:00C0H         PUBLIC        P4
  D:00C8H         PUBLIC        P5
  D:00E8H         PUBLIC        P6
  D:00F8H         PUBLIC        P7
  D:00A8H         PUBLIC        IE
  D:00B8H         PUBLIC        IP
  D:0028H         PUBLIC        s_task_news
  D:0098H         PUBLIC        SCON
  D:0088H         PUBLIC        TCON
  D:002AH         SYMBOL        task_node
  B:0088H.1       PUBLIC        IE0
  B:00A8H.1       PUBLIC        ET0
  C:009EH         PUBLIC        sPendSV_Handler
  D:008CH         PUBLIC        TH0
  B:00A8H.0       PUBLIC        EX0
  D:008AH         PUBLIC        TL0
  D:0030H         SYMBOL        task_queue_len
  D:0031H         PUBLIC        s_taskstacklen
  X:05C9H         SYMBOL        usedtime
  C:26F0H         PUBLIC        OS_SysTick_Handler
  D:00D0H         PUBLIC        PSW
  -------         PROC          OS_SYSTICK_HANDLER
  -------         DO            
  D:003AH         SYMBOL        i
  D:003BH         SYMBOL        node_curr
  X:05C7H         SYMBOL        tick_temp
  -------         ENDDO         
  C:26F0H         LINE#         25
  C:270DH         LINE#         37
  C:2713H         LINE#         41
  C:2716H         LINE#         42
  C:2725H         LINE#         43
  C:2725H         LINE#         95
  C:2728H         LINE#         96
  C:272AH         LINE#         97
  C:273CH         LINE#         98
  C:273CH         LINE#         99
  C:273FH         LINE#         100
  C:2741H         LINE#         101
  C:2753H         LINE#         102
  C:2753H         LINE#         107
  C:2756H         LINE#         112
  C:2759H         LINE#         113
  C:2763H         LINE#         114
  C:2777H         LINE#         115
  C:278BH         LINE#         116
  C:279FH         LINE#         117
  C:27ADH         LINE#         118
  C:27D1H         LINE#         119
  C:27D1H         LINE#         120
  C:27DFH         LINE#         121
BL51 BANKED LINKER/LOCATER V6.22.2.0                                                  07/08/2024  03:11:28  PAGE 11


  C:2813H         LINE#         122
  C:2816H         LINE#         123
  C:2816H         LINE#         124
  C:2838H         LINE#         125
  C:2838H         LINE#         126
  C:2838H         LINE#         127
  C:2838H         LINE#         128
  C:283BH         LINE#         133
  C:283EH         LINE#         134
  C:2848H         LINE#         135
  C:2866H         LINE#         136
  C:287AH         LINE#         137
  C:287AH         LINE#         138
  C:288EH         LINE#         139
  C:28B3H         LINE#         140
  C:28C1H         LINE#         141
  C:28E5H         LINE#         142
  C:28E7H         LINE#         143
  C:28E7H         LINE#         144
  C:28F9H         LINE#         145
  C:28F9H         LINE#         146
  C:2907H         LINE#         147
  C:293BH         LINE#         148
  C:293EH         LINE#         149
  C:293EH         LINE#         150
  C:2960H         LINE#         151
  C:2960H         LINE#         152
  C:2960H         LINE#         153
  C:2960H         LINE#         154
  C:2963H         LINE#         158
  C:2968H         LINE#         159
  C:296EH         LINE#         160
  C:296EH         LINE#         161
  C:2983H         LINE#         162
  C:299FH         LINE#         163
  C:29B1H         LINE#         164
  C:29B1H         LINE#         165
  C:29B1H         LINE#         166
  C:29B7H         LINE#         167
  C:29CAH         LINE#         168
  C:29CCH         LINE#         171
  C:29CEH         LINE#         190
  C:29D4H         LINE#         191
  C:29F3H         LINE#         193
  C:2A61H         LINE#         195
  C:2A61H         LINE#         199
  C:2A61H         LINE#         200
  C:2A63H         LINE#         201
  C:2A65H         LINE#         202
  C:2A67H         LINE#         203
  C:2A67H         LINE#         204
  -------         ENDPROC       OS_SYSTICK_HANDLER
  -------         PROC          SPENDSV_HANDLER
  -------         DO            
  C:06AAH         SYMBOL        __STARTUP_END
  C:121BH         SYMBOL        __NEWTASK_PREPROCESS
  C:0F26H         SYMBOL        __TASKING_PREPROCESS
BL51 BANKED LINKER/LOCATER V6.22.2.0                                                  07/08/2024  03:11:28  PAGE 12


  C:1063H         SYMBOL        __TASKING_POSTPROCESS
  -------         DO            
  D:0027H         SYMBOL        insert_direction
  D:0032H         SYMBOL        node_buff
  B:0026H.3       SYMBOL        sign_x
  D:0038H         SYMBOL        counter
  -------         ENDDO         
  -------         ENDDO         
  C:009EH         LINE#         290
  C:009EH         LINE#         291
  C:009EH         LINE#         293
  C:00A4H         LINE#         297
  C:00A7H         LINE#         317
  C:00ADH         LINE#         323
  C:00AFH         LINE#         330
  C:00B1H         LINE#         333
  C:00BAH         LINE#         334
  C:00C8H         LINE#         336
  C:00E2H         LINE#         337
  C:00E8H         LINE#         338
  C:00FBH         LINE#         340
  C:0102H         LINE#         341
  C:0105H         LINE#         343
  C:0108H         LINE#         344
  C:010BH         LINE#         345
  C:010BH         LINE#         346
  C:010BH         LINE#         347
  C:0159H         LINE#         348
  C:0159H         LINE#         349
  C:015CH         LINE#         351
  C:015CH         LINE#         352
  C:0161H         LINE#         353
  C:016BH         LINE#         354
  C:0172H         LINE#         355
  C:0186H         LINE#         356
  C:0197H         LINE#         357
  C:01A1H         LINE#         358
  C:01B3H         LINE#         359
  C:01B5H         LINE#         360
  C:01B5H         LINE#         361
  C:01C3H         LINE#         362
  C:01C3H         LINE#         363
  C:01D2H         LINE#         364
  C:01F2H         LINE#         365
  C:0207H         LINE#         366
  C:0255H         LINE#         367
  C:0265H         LINE#         368
  C:0277H         LINE#         369
  C:0297H         LINE#         370
  C:02B1H         LINE#         372
  C:02D1H         LINE#         377
  C:02DFH         LINE#         378
  C:02E1H         LINE#         379
  C:02E1H         LINE#         380
  C:02E8H         LINE#         382
  C:02EFH         LINE#         383
  C:02F2H         LINE#         385
BL51 BANKED LINKER/LOCATER V6.22.2.0                                                  07/08/2024  03:11:28  PAGE 13


  C:02F5H         LINE#         386
  C:02F8H         LINE#         387
  C:02F8H         LINE#         388
  C:02F8H         LINE#         389
  C:02F8H         LINE#         391
  C:02FFH         LINE#         392
  C:0302H         LINE#         394
  C:0305H         LINE#         395
  C:0308H         LINE#         396
  C:0308H         LINE#         397
  C:0308H         LINE#         399
  C:0319H         LINE#         400
  C:0324H         LINE#         401
  C:0326H         LINE#         402
  C:0326H         LINE#         403
  C:0332H         LINE#         405
  C:0339H         LINE#         407
  C:0339H         LINE#         408
  C:0346H         LINE#         409
  C:0355H         LINE#         410
  C:0364H         LINE#         412
  C:0376H         LINE#         413
  C:0388H         LINE#         414
  C:0396H         LINE#         420
  C:039AH         LINE#         421
  C:03C8H         LINE#         422
  C:03CBH         LINE#         423
  C:03CBH         LINE#         424
  C:03D1H         LINE#         425
  C:03FAH         LINE#         426
  C:03FAH         LINE#         427
  C:040DH         LINE#         428
  C:0439H         LINE#         429
  C:043BH         LINE#         430
  C:0464H         LINE#         431
  C:0464H         LINE#         432
  C:0477H         LINE#         433
  C:04A0H         LINE#         434
  C:04A0H         LINE#         435
  C:04C0H         LINE#         436
  C:0547H         LINE#         437
  C:0547H         LINE#         438
  C:0567H         LINE#         439
  C:05F7H         LINE#         440
  C:05F7H         LINE#         441
  C:05F7H         LINE#         442
  C:0692H         LINE#         443
  C:0692H         LINE#         444
  C:0692H         LINE#         445
  C:0694H         LINE#         446
  C:0697H         LINE#         447
  C:0699H         LINE#         448
  C:0699H         LINE#         450
  C:06A0H         LINE#         451
  C:06A7H         LINE#         453
  C:06AAH         LINE#         454
  C:06AAH         LINE#         455
BL51 BANKED LINKER/LOCATER V6.22.2.0                                                  07/08/2024  03:11:28  PAGE 14


  C:06AAH         LINE#         456
  C:06AFH         LINE#         457
  C:06B2H         LINE#         458
  C:06BEH         LINE#         459
  C:06C0H         LINE#         460
  C:06CBH         LINE#         461
  C:06CEH         LINE#         462
  C:06CEH         LINE#         463
  C:06CEH         LINE#         464
  C:06D1H         LINE#         465
  C:06D1H         LINE#         466
  C:06D1H         LINE#         467
  C:06D1H         LINE#         474
  C:06DAH         LINE#         475
  C:06E0H         LINE#         476
  C:06E0H         LINE#         477
  C:06E6H         LINE#         478
  C:06F9H         LINE#         479
  C:06FFH         LINE#         480
  C:0728H         LINE#         481
  C:0728H         LINE#         482
  C:073BH         LINE#         483
  C:0767H         LINE#         484
  C:0769H         LINE#         485
  C:0792H         LINE#         486
  C:0792H         LINE#         487
  C:07A5H         LINE#         488
  C:07CEH         LINE#         489
  C:07CEH         LINE#         490
  C:07EEH         LINE#         491
  C:0875H         LINE#         492
  C:0875H         LINE#         493
  C:0895H         LINE#         494
  C:0925H         LINE#         495
  C:0925H         LINE#         496
  C:0925H         LINE#         497
  C:09C0H         LINE#         498
  C:09C0H         LINE#         499
  C:09C9H         LINE#         500
  C:09CDH         LINE#         501
  C:09CDH         LINE#         505
  C:09D6H         LINE#         506
  C:09D8H         LINE#         507
  C:09DEH         LINE#         508
  C:09E3H         LINE#         509
  C:09E6H         LINE#         510
  C:09E6H         LINE#         512
  C:09E9H         LINE#         513
  C:09EFH         LINE#         514
  C:0A1AH         LINE#         515
  C:0A1EH         LINE#         516
  C:0A20H         LINE#         517
  C:0A20H         LINE#         519
  C:0A20H         LINE#         520
  C:0A22H         LINE#         521
  C:0A27H         LINE#         522
  C:0A2DH         LINE#         523
BL51 BANKED LINKER/LOCATER V6.22.2.0                                                  07/08/2024  03:11:28  PAGE 15


  C:0A2DH         LINE#         526
  C:0A2DH         LINE#         527
  C:0A53H         LINE#         528
  C:0A53H         LINE#         529
  C:0A65H         LINE#         530
  C:0A72H         LINE#         531
  C:0A9FH         LINE#         532
  C:0AA2H         LINE#         533
  C:0AA2H         LINE#         534
  C:0AC9H         LINE#         535
  C:0AC9H         LINE#         536
  C:0AE2H         LINE#         537
  C:0B0FH         LINE#         538
  C:0B12H         LINE#         543
  C:0B12H         LINE#         544
  C:0B2CH         LINE#         545
  C:0B59H         LINE#         546
  C:0B5CH         LINE#         547
  C:0B5CH         LINE#         548
  C:0B5CH         LINE#         549
  C:0B5CH         LINE#         550
  C:0B5FH         LINE#         551
  C:0B5FH         LINE#         552
  C:0B83H         LINE#         553
  C:0BB0H         LINE#         554
  C:0BB3H         LINE#         555
  C:0BB3H         LINE#         556
  C:0BB3H         LINE#         557
  C:0BB3H         LINE#         558
  C:0BB5H         LINE#         559
  C:0BB5H         LINE#         560
  C:0BCBH         LINE#         561
  C:0BF8H         LINE#         562
  C:0BFBH         LINE#         563
  C:0BFBH         LINE#         564
  C:0C09H         LINE#         565
  C:0C09H         LINE#         566
  C:0C0CH         LINE#         567
  C:0C0CH         LINE#         568
  C:0C0CH         LINE#         569
  C:0C0CH         LINE#         570
  C:0C0CH         LINE#         571
  C:0C1EH         LINE#         572
  C:0C2BH         LINE#         573
  C:0C58H         LINE#         574
  C:0C5BH         LINE#         575
  C:0C6CH         LINE#         576
  C:0C87H         LINE#         577
  C:0C87H         LINE#         578
  C:0CA0H         LINE#         579
  C:0CAEH         LINE#         580
  C:0CDBH         LINE#         581
  C:0CDBH         LINE#         582
  C:0CDEH         LINE#         583
  C:0CDEH         LINE#         584
  C:0CFBH         LINE#         585
  C:0D09H         LINE#         586
BL51 BANKED LINKER/LOCATER V6.22.2.0                                                  07/08/2024  03:11:28  PAGE 16


  C:0D36H         LINE#         587
  C:0D36H         LINE#         588
  C:0D39H         LINE#         589
  C:0D39H         LINE#         590
  C:0D60H         LINE#         591
  C:0D6EH         LINE#         592
  C:0D9BH         LINE#         593
  C:0D9BH         LINE#         594
  C:0D9EH         LINE#         595
  C:0D9EH         LINE#         596
  C:0DB7H         LINE#         597
  C:0DC5H         LINE#         598
  C:0DF2H         LINE#         599
  C:0DF2H         LINE#         600
  C:0DF5H         LINE#         601
  C:0DF5H         LINE#         602
  C:0DF5H         LINE#         603
  C:0DF5H         LINE#         604
  C:0DF5H         LINE#         605
  C:0E22H         LINE#         606
  C:0E25H         LINE#         607
  C:0E25H         LINE#         608
  C:0E34H         LINE#         609
  C:0EADH         LINE#         610
  C:0EBBH         LINE#         611
  C:0ECEH         LINE#         612
  C:0EE5H         LINE#         613
  C:0EECH         LINE#         614
  C:0EECH         LINE#         615
  C:0EECH         LINE#         616
  C:0EECH         LINE#         625
  C:0EECH         LINE#         626
  C:0EFFH         LINE#         628
  C:0F24H         LINE#         629
  C:0F26H         LINE#         630
  C:0F26H         LINE#         631
  C:0F26H         LINE#         632
  C:0F26H         LINE#         635
  C:0F26H         LINE#         638
  C:0F37H         LINE#         639
  C:0F45H         LINE#         640
  C:0F54H         LINE#         641
  C:0F5BH         LINE#         642
  C:0F5BH         LINE#         643
  C:0F5BH         LINE#         645
  C:0F5BH         LINE#         648
  C:0F61H         LINE#         650
  C:0F80H         LINE#         651
  C:0F80H         LINE#         652
  C:0F80H         LINE#         655
  C:0FA0H         LINE#         656
  C:0FADH         LINE#         657
  C:0FBBH         LINE#         658
  C:0FBFH         LINE#         659
  C:0FBFH         LINE#         660
  C:0FC2H         LINE#         661
  C:0FC2H         LINE#         663
BL51 BANKED LINKER/LOCATER V6.22.2.0                                                  07/08/2024  03:11:28  PAGE 17


  C:0FC8H         LINE#         664
  C:0FCAH         LINE#         665
  C:0FFFH         LINE#         666
  C:1014H         LINE#         667
  C:1027H         LINE#         668
  C:1029H         LINE#         669
  C:1029H         LINE#         670
  C:102FH         LINE#         671
  C:1031H         LINE#         672
  C:1031H         LINE#         673
  C:1031H         LINE#         675
  C:103DH         LINE#         676
  C:103FH         LINE#         677
  C:104CH         LINE#         678
  C:105AH         LINE#         679
  C:105EH         LINE#         680
  C:105EH         LINE#         681
  C:1061H         LINE#         682
  C:1061H         LINE#         684
  C:1061H         LINE#         685
  C:1063H         LINE#         688
  C:1063H         LINE#         689
  C:107BH         LINE#         692
  C:108DH         LINE#         694
  C:109EH         LINE#         695
  C:10ACH         LINE#         696
  C:10BFH         LINE#         697
  C:10CEH         LINE#         698
  C:10EEH         LINE#         699
  C:1100H         LINE#         700
  C:1102H         LINE#         701
  C:1110H         LINE#         702
  C:1113H         LINE#         703
  C:1115H         LINE#         704
  C:1115H         LINE#         705
  C:1123H         LINE#         706
  C:112AH         LINE#         707
  C:112AH         LINE#         708
  C:112DH         LINE#         709
  C:112DH         LINE#         710
  C:113BH         LINE#         711
  C:1142H         LINE#         712
  C:1142H         LINE#         717
  C:1145H         LINE#         718
  C:1145H         LINE#         719
  C:1147H         LINE#         720
  C:1147H         LINE#         724
  C:114AH         LINE#         725
  C:115DH         LINE#         726
  C:1163H         LINE#         727
  C:11DCH         LINE#         728
  C:11EAH         LINE#         729
  C:11FDH         LINE#         730
  C:1214H         LINE#         731
  C:121BH         LINE#         732
  C:121BH         LINE#         733
  C:121BH         LINE#         734
BL51 BANKED LINKER/LOCATER V6.22.2.0                                                  07/08/2024  03:11:28  PAGE 18


  C:121BH         LINE#         737
  C:121BH         LINE#         738
  C:121EH         LINE#         739
  C:122BH         LINE#         740
  C:1239H         LINE#         741
  C:123DH         LINE#         742
  C:123DH         LINE#         744
  C:124AH         LINE#         746
  C:124AH         LINE#         749
  C:1250H         LINE#         756
  C:142BH         LINE#         759
  C:142BH         LINE#         762
  C:142BH         LINE#         764
  C:1445H         LINE#         767
  C:144BH         LINE#         768
  C:144BH         LINE#         770
  C:1451H         LINE#         771
  C:1454H         LINE#         772
  C:1454H         LINE#         773
  C:1456H         LINE#         774
  -------         ENDPROC       SPENDSV_HANDLER
  -------         ENDMOD        OS_HANDLER

  -------         MODULE        OS_MAIN
  C:0000H         SYMBOL        _ICE_DUMMY_
  D:0080H         PUBLIC        P0
  D:0090H         PUBLIC        P1
  D:00A0H         PUBLIC        P2
  D:00B0H         PUBLIC        P3
  D:00C0H         PUBLIC        P4
  D:00C8H         PUBLIC        P5
  D:00E8H         PUBLIC        P6
  B:00A8H.7       PUBLIC        EA
  D:00F8H         PUBLIC        P7
  D:00A8H         PUBLIC        IE
  D:00B8H         PUBLIC        IP
  C:5664H         PUBLIC        main
  D:0098H         PUBLIC        SCON
  D:0089H         PUBLIC        TMOD
  D:0088H         PUBLIC        TCON
  D:008EH         PUBLIC        AUXR
  B:00A8H.1       PUBLIC        ET0
  D:008CH         PUBLIC        TH0
  B:00A8H.0       PUBLIC        EX0
  D:008AH         PUBLIC        TL0
  B:0088H.4       PUBLIC        TR0
  D:00D0H         PUBLIC        PSW
  -------         PROC          MAIN
  C:5664H         LINE#         12
  C:5664H         LINE#         13
  C:5664H         LINE#         22
  C:5667H         LINE#         24
  C:566AH         LINE#         25
  C:568DH         LINE#         27
  C:56ABH         LINE#         29
  C:56BBH         LINE#         30
  C:56CBH         LINE#         31
BL51 BANKED LINKER/LOCATER V6.22.2.0                                                  07/08/2024  03:11:28  PAGE 19


  -------         ENDPROC       MAIN
  -------         ENDMOD        OS_MAIN

  -------         MODULE        OS_STARTER
  C:0000H         SYMBOL        _ICE_DUMMY_
  D:0080H         PUBLIC        P0
  D:0090H         PUBLIC        P1
  D:00A0H         PUBLIC        P2
  D:00B0H         PUBLIC        P3
  D:00C0H         PUBLIC        P4
  D:00C8H         PUBLIC        P5
  D:00E8H         PUBLIC        P6
  D:00F8H         PUBLIC        P7
  D:00A8H         PUBLIC        IE
  D:00B8H         PUBLIC        IP
  D:0098H         PUBLIC        SCON
  D:0088H         PUBLIC        TCON
  X:05BBH         PUBLIC        u_taskhandle_Starter
  C:4D8CH         PUBLIC        Starter
  X:05BDH         PUBLIC        u_taskhand_Starter
  D:00D0H         PUBLIC        PSW
  -------         PROC          STARTER
  -------         DO            
  X:0647H         SYMBOL        i
  -------         ENDDO         
  C:4D8CH         LINE#         12
  C:4D8CH         LINE#         13
  C:4D8CH         LINE#         17
  C:4D92H         LINE#         18
  C:4D9CH         LINE#         19
  C:4DA9H         LINE#         20
  C:4DD5H         LINE#         21
  C:4DD5H         LINE#         22
  C:4DD5H         LINE#         25
  C:4DDBH         LINE#         26
  C:4DE5H         LINE#         27
  C:4DF2H         LINE#         28
  C:4E1EH         LINE#         29
  C:4E1EH         LINE#         30
  C:4E1EH         LINE#         33
  C:4E21H         LINE#         34
  -------         ENDPROC       STARTER
  -------         ENDMOD        OS_STARTER

  -------         MODULE        OS_SYSIDLE
  C:0000H         SYMBOL        _ICE_DUMMY_
  D:0080H         PUBLIC        P0
  D:0090H         PUBLIC        P1
  D:00A0H         PUBLIC        P2
  D:00B0H         PUBLIC        P3
  D:00C0H         PUBLIC        P4
  D:00C8H         PUBLIC        P5
  D:00E8H         PUBLIC        P6
  D:00F8H         PUBLIC        P7
  D:00A8H         PUBLIC        IE
  D:00B8H         PUBLIC        IP
  D:0098H         PUBLIC        SCON
BL51 BANKED LINKER/LOCATER V6.22.2.0                                                  07/08/2024  03:11:28  PAGE 20


  D:0088H         PUBLIC        TCON
  X:0502H         PUBLIC        u_taskhandle_Sysidle
  C:651DH         PUBLIC        Sysidle
  X:0504H         SYMBOL        u_taskstack_Sysidle
  X:0524H         PUBLIC        u_taskhand_Sysidle
  D:00D0H         PUBLIC        PSW
  -------         PROC          SYSIDLE
  C:651DH         LINE#         12
  C:651DH         LINE#         13
  C:651DH         LINE#         37
  C:651FH         LINE#         38
  -------         ENDPROC       SYSIDLE
  -------         ENDMOD        OS_SYSIDLE

  -------         MODULE        OS_TASKMGR
  C:0000H         SYMBOL        _ICE_DUMMY_
  D:0080H         PUBLIC        P0
  D:0090H         PUBLIC        P1
  D:00A0H         PUBLIC        P2
  D:00B0H         PUBLIC        P3
  D:00C0H         PUBLIC        P4
  D:00C8H         PUBLIC        P5
  D:00E8H         PUBLIC        P6
  D:00F8H         PUBLIC        P7
  D:00A8H         PUBLIC        IE
  D:00B8H         PUBLIC        IP
  C:45C3H         PUBLIC        u_timqryhand_1
  C:558BH         SYMBOL        __u8str16_
  D:0098H         PUBLIC        SCON
  D:0088H         PUBLIC        TCON
  C:64CAH         PUBLIC        u_timqryevent_1
  X:04B8H         PUBLIC        u_taskhandle_Taskmgr
  D:003DH         SYMBOL        mptr
  C:51C0H         SYMBOL        __u8str_
  B:00A8H.1       PUBLIC        ET0
  B:00A8H.0       PUBLIC        EX0
  C:63B7H         SYMBOL        __spccpy_
  X:04BAH         SYMBOL        str
  C:618EH         SYMBOL        __strlen_
  C:5FD9H         SYMBOL        __u16len_
  C:1C65H         PUBLIC        Taskmgr
  X:04C2H         SYMBOL        u_taskstack_Taskmgr
  X:04E1H         PUBLIC        u_taskhand_Taskmgr
  C:5A71H         SYMBOL        __strcpy_
  C:4A1EH         SYMBOL        __used_ratio_
  C:4291H         SYMBOL        __u16str_
  D:00D0H         PUBLIC        PSW
  -------         PROC          __SPCCPY_
  D:0007H         SYMBOL        n
  C:63B7H         LINE#         19
  C:63B7H         LINE#         20
  C:63B7H         LINE#         21
  C:63B7H         LINE#         22
  C:63C9H         LINE#         23
  C:63CBH         LINE#         24
  -------         ENDPROC       __SPCCPY_
  C:5A67H         SYMBOL        L?0156
BL51 BANKED LINKER/LOCATER V6.22.2.0                                                  07/08/2024  03:11:28  PAGE 21


  C:5A6BH         SYMBOL        L?0157
  -------         PROC          L?0155
  -------         ENDPROC       L?0155
  C:5A67H         SYMBOL        L?0156
  C:5A6BH         SYMBOL        L?0157
  -------         PROC          __STRCPY_
  X:0627H         SYMBOL        sub
  C:5A71H         LINE#         26
  C:5A7CH         LINE#         27
  C:5A7CH         LINE#         28
  C:5A8CH         LINE#         29
  C:5AAFH         LINE#         30
  C:5AB1H         LINE#         31
  -------         ENDPROC       __STRCPY_
  C:6188H         SYMBOL        L?0159
  -------         PROC          L?0158
  -------         ENDPROC       L?0158
  C:6188H         SYMBOL        L?0159
  -------         PROC          __STRLEN_
  X:062AH         SYMBOL        src
  -------         DO            
  D:0007H         SYMBOL        i
  -------         ENDDO         
  C:618EH         LINE#         33
  C:6199H         LINE#         34
  C:6199H         LINE#         35
  C:619BH         LINE#         36
  C:61B0H         LINE#         37
  C:61B1H         LINE#         38
  C:61B3H         LINE#         39
  C:61B3H         LINE#         40
  -------         ENDPROC       __STRLEN_
  -------         PROC          __U8STR_
  D:0007H         SYMBOL        var
  -------         DO            
  X:062DH         SYMBOL        ptr
  C:51FFH         SYMBOL        Lable_2
  C:521EH         SYMBOL        Lable_1
  C:5239H         SYMBOL        Lable_0
  -------         ENDDO         
  C:51C0H         LINE#         42
  C:51C0H         LINE#         43
  C:51C0H         LINE#         44
  C:51CAH         LINE#         45
  C:51D4H         LINE#         46
  C:51EDH         LINE#         47
  C:51EFH         LINE#         48
  C:51EFH         LINE#         49
  C:51F9H         LINE#         50
  C:51FAH         LINE#         51
  C:51FCH         LINE#         52
  C:51FCH         LINE#         53
  C:51FCH         LINE#         54
  C:51FDH         LINE#         55
  C:51FFH         LINE#         56
  C:51FFH         LINE#         57
  C:521EH         LINE#         58
BL51 BANKED LINKER/LOCATER V6.22.2.0                                                  07/08/2024  03:11:28  PAGE 22


  C:5239H         LINE#         59
  C:5246H         LINE#         60
  -------         ENDPROC       __U8STR_
  -------         PROC          __U16STR_
  D:0002H         SYMBOL        var
  -------         DO            
  X:062FH         SYMBOL        ptr
  C:4303H         SYMBOL        Lable_4
  C:4330H         SYMBOL        Lable_3
  C:435DH         SYMBOL        Lable_2
  C:438AH         SYMBOL        Lable_1
  C:43AAH         SYMBOL        Lable_0
  -------         ENDDO         
  C:4291H         LINE#         62
  C:4295H         LINE#         63
  C:4295H         LINE#         64
  C:429FH         LINE#         65
  C:42A8H         LINE#         66
  C:42C4H         LINE#         67
  C:42C6H         LINE#         68
  C:42C6H         LINE#         69
  C:42CFH         LINE#         70
  C:42D7H         LINE#         71
  C:42D9H         LINE#         72
  C:42D9H         LINE#         73
  C:42E2H         LINE#         74
  C:42EAH         LINE#         75
  C:42ECH         LINE#         76
  C:42ECH         LINE#         77
  C:42F5H         LINE#         78
  C:42FDH         LINE#         79
  C:42FFH         LINE#         80
  C:42FFH         LINE#         81
  C:42FFH         LINE#         82
  C:4300H         LINE#         83
  C:4303H         LINE#         84
  C:4303H         LINE#         85
  C:4330H         LINE#         86
  C:435DH         LINE#         87
  C:438AH         LINE#         88
  C:43AAH         LINE#         89
  C:43B7H         LINE#         90
  -------         ENDPROC       __U16STR_
  -------         PROC          __U16LEN_
  D:0006H         SYMBOL        var
  C:5FD9H         LINE#         92
  C:5FD9H         LINE#         93
  C:5FD9H         LINE#         94
  C:5FE5H         LINE#         95
  C:5FF1H         LINE#         96
  C:5FFDH         LINE#         97
  C:6009H         LINE#         98
  C:600BH         LINE#         99
  -------         ENDPROC       __U16LEN_
  -------         PROC          __USED_RATIO_
  D:0006H         SYMBOL        permill
  -------         DO            
BL51 BANKED LINKER/LOCATER V6.22.2.0                                                  07/08/2024  03:11:28  PAGE 23


  D:0005H         SYMBOL        i
  -------         ENDDO         
  C:4A1EH         LINE#         101
  C:4A1EH         LINE#         102
  C:4A1EH         LINE#         104
  C:4A22H         LINE#         105
  C:4A28H         LINE#         106
  C:4A2BH         LINE#         107
  C:4A2DH         LINE#         108
  C:4A30H         LINE#         109
  C:4A30H         LINE#         110
  C:4A33H         LINE#         111
  C:4A38H         LINE#         112
  C:4A44H         LINE#         113
  C:4A5CH         LINE#         114
  C:4A74H         LINE#         115
  C:4A81H         LINE#         116
  C:4A8DH         LINE#         117
  C:4A8FH         LINE#         118
  C:4A91H         LINE#         119
  C:4A91H         LINE#         120
  C:4A97H         LINE#         121
  C:4A9DH         LINE#         122
  C:4AA0H         LINE#         123
  C:4AA2H         LINE#         124
  C:4AA2H         LINE#         125
  C:4AAAH         LINE#         126
  C:4AB2H         LINE#         127
  C:4AB2H         LINE#         128
  C:4AB8H         LINE#         129
  C:4ABCH         LINE#         130
  C:4AC1H         LINE#         131
  C:4AC3H         LINE#         132
  C:4AC3H         LINE#         133
  C:4AC3H         LINE#         134
  C:4AC7H         LINE#         135
  C:4ACAH         LINE#         136
  C:4ADCH         LINE#         137
  -------         ENDPROC       __USED_RATIO_
  -------         PROC          __U8STR16_
  D:0005H         SYMBOL        var
  C:558BH         LINE#         140
  C:558BH         LINE#         141
  C:558BH         LINE#         142
  C:5595H         LINE#         143
  C:559CH         LINE#         144
  C:55B4H         LINE#         145
  C:55CCH         LINE#         146
  C:55E2H         LINE#         147
  C:55F8H         LINE#         148
  -------         ENDPROC       __U8STR16_
  -------         PROC          U_TIMQRYEVENT_1
  C:64CAH         LINE#         151
  -------         ENDPROC       U_TIMQRYEVENT_1
  -------         PROC          TASKMGR
  -------         DO            
  X:04B4H         SYMBOL        p
BL51 BANKED LINKER/LOCATER V6.22.2.0                                                  07/08/2024  03:11:28  PAGE 24


  -------         DO            
  X:0491H         SYMBOL        upspeed
  X:0493H         SYMBOL        node_temp
  X:00EDH         SYMBOL        node_curr
  X:00EFH         SYMBOL        permill1
  X:00F1H         SYMBOL        pc
  -------         DO            
  X:00F3H         SYMBOL        permill2
  X:00F3H         SYMBOL        p0
  X:00F3H         SYMBOL        counter1
  X:00F7H         SYMBOL        counter2
  -------         ENDDO         
  -------         DO            
  X:00F3H         SYMBOL        p0
  X:00F3H         SYMBOL        counter1
  X:00F7H         SYMBOL        counter2
  -------         ENDDO         
  -------         DO            
  X:00F3H         SYMBOL        counter1
  X:00F7H         SYMBOL        counter2
  -------         ENDDO         
  -------         ENDDO         
  -------         ENDDO         
  C:1C65H         LINE#         151
  C:1C65H         LINE#         152
  C:1C65H         LINE#         154
  C:1C6BH         LINE#         156
  C:1C74H         LINE#         157
  C:1C79H         LINE#         163
  C:1C83H         LINE#         164
  C:1C88H         LINE#         165
  C:1C91H         LINE#         167
  C:1C9AH         LINE#         168
  C:1C9FH         LINE#         169
  C:1CA4H         LINE#         170
  C:1CADH         LINE#         171
  C:1CB2H         LINE#         172
  C:1CBBH         LINE#         173
  C:1CC0H         LINE#         174
  C:1CC9H         LINE#         175
  C:1CCEH         LINE#         176
  C:1CD7H         LINE#         177
  C:1CDCH         LINE#         178
  C:1CE5H         LINE#         179
  C:1CEEH         LINE#         181
  C:1CF7H         LINE#         183
  C:1D01H         LINE#         184
  C:1D01H         LINE#         187
  C:1D10H         LINE#         188
  C:1D18H         LINE#         190
  C:1D20H         LINE#         192
  C:1D2BH         LINE#         193
  C:1D2BH         LINE#         195
  C:1D2FH         LINE#         196
  C:1D48H         LINE#         197
  C:1D5FH         LINE#         198
  C:1D6FH         LINE#         199
BL51 BANKED LINKER/LOCATER V6.22.2.0                                                  07/08/2024  03:11:28  PAGE 25


  C:1D73H         LINE#         201
  C:1D82H         LINE#         202
  C:1D9BH         LINE#         203
  C:1DB2H         LINE#         204
  C:1DB2H         LINE#         206
  C:1DBAH         LINE#         207
  C:1DBDH         LINE#         208
  C:1DC0H         LINE#         210
  C:1DC8H         LINE#         211
  C:1DCBH         LINE#         212
  C:1DCEH         LINE#         214
  C:1DD3H         LINE#         215
  C:1DE1H         LINE#         216
  C:1DE7H         LINE#         217
  C:1DEAH         LINE#         218
  C:1DEFH         LINE#         219
  C:1DF6H         LINE#         220
  C:1E18H         LINE#         221
  C:1E21H         LINE#         222
  C:1E29H         LINE#         223
  C:1E31H         LINE#         224
  C:1E39H         LINE#         225
  C:1E41H         LINE#         226
  C:1E49H         LINE#         227
  C:1E51H         LINE#         228
  C:1E59H         LINE#         229
  C:1E61H         LINE#         230
  C:1E61H         LINE#         231
  C:1E61H         LINE#         232
  C:1E6AH         LINE#         233
  C:1E70H         LINE#         234
  C:1E72H         LINE#         235
  C:1E76H         LINE#         236
  C:1E7CH         LINE#         237
  C:1E7EH         LINE#         238
  C:1E87H         LINE#         239
  C:1E8DH         LINE#         240
  C:1E8FH         LINE#         241
  C:1E96H         LINE#         242
  C:1E9AH         LINE#         243
  C:1E9CH         LINE#         244
  C:1E9CH         LINE#         245
  C:1EA3H         LINE#         246
  C:1EA3H         LINE#         248
  C:1F19H         LINE#         254
  C:1F1CH         LINE#         255
  C:1F22H         LINE#         256
  C:1F37H         LINE#         257
  C:1F37H         LINE#         263
  C:1F55H         LINE#         266
  C:1F5DH         LINE#         267
  C:1F60H         LINE#         268
  C:1F69H         LINE#         269
  C:1F77H         LINE#         270
  C:1F8BH         LINE#         271
  C:1F9FH         LINE#         272
  C:1FB1H         LINE#         273
BL51 BANKED LINKER/LOCATER V6.22.2.0                                                  07/08/2024  03:11:28  PAGE 26


  C:1FB1H         LINE#         274
  C:1FBBH         LINE#         275
  C:1FBEH         LINE#         276
  C:1FD0H         LINE#         277
  C:1FD9H         LINE#         279
  C:1FF0H         LINE#         280
  C:1FF0H         LINE#         281
  C:1FF0H         LINE#         282
  C:1FF8H         LINE#         283
  C:1FFBH         LINE#         285
  C:1FFBH         LINE#         286
  C:2005H         LINE#         287
  C:2010H         LINE#         288
  C:201BH         LINE#         289
  C:2026H         LINE#         290
  C:2026H         LINE#         292
  C:202FH         LINE#         295
  C:203CH         LINE#         296
  C:2043H         LINE#         297
  C:2043H         LINE#         298
  C:204CH         LINE#         299
  C:2056H         LINE#         300
  C:2059H         LINE#         301
  C:2062H         LINE#         302
  C:2069H         LINE#         303
  C:206CH         LINE#         304
  C:2075H         LINE#         308
  C:207EH         LINE#         313
  C:2086H         LINE#         314
  C:208FH         LINE#         315
  C:2098H         LINE#         319
  C:209CH         LINE#         320
  C:20B3H         LINE#         321
  C:20C7H         LINE#         322
  C:20DBH         LINE#         323
  C:20E5H         LINE#         324
  C:20EFH         LINE#         325
  C:20F3H         LINE#         326
  C:212AH         LINE#         327
  C:2133H         LINE#         328
  C:214DH         LINE#         329
  C:2150H         LINE#         330
  C:2162H         LINE#         331
  C:218DH         LINE#         332
  C:2190H         LINE#         333
  C:21ACH         LINE#         334
  C:21AFH         LINE#         335
  C:21B8H         LINE#         336
  C:21BAH         LINE#         337
  C:21BAH         LINE#         338
  C:21BEH         LINE#         339
  C:21BEH         LINE#         342
  C:21C7H         LINE#         343
  C:21D0H         LINE#         344
  C:21D7H         LINE#         345
  C:21E0H         LINE#         346
  C:21E0H         LINE#         347
BL51 BANKED LINKER/LOCATER V6.22.2.0                                                  07/08/2024  03:11:28  PAGE 27


  C:21E7H         LINE#         348
  C:21F0H         LINE#         349
  C:21F0H         LINE#         350
  C:21F7H         LINE#         351
  C:2200H         LINE#         352
  C:2200H         LINE#         353
  C:2207H         LINE#         354
  C:2210H         LINE#         355
  C:2210H         LINE#         356
  C:2217H         LINE#         357
  C:2220H         LINE#         358
  C:2220H         LINE#         359
  C:2227H         LINE#         360
  C:2230H         LINE#         361
  C:2230H         LINE#         362
  C:223CH         LINE#         363
  C:2245H         LINE#         364
  C:2245H         LINE#         366
  C:224EH         LINE#         367
  C:2257H         LINE#         368
  C:225EH         LINE#         369
  C:2267H         LINE#         370
  C:2267H         LINE#         371
  C:226EH         LINE#         372
  C:2277H         LINE#         373
  C:2277H         LINE#         374
  C:227EH         LINE#         375
  C:2287H         LINE#         376
  C:2287H         LINE#         377
  C:228EH         LINE#         378
  C:2297H         LINE#         379
  C:2297H         LINE#         380
  C:229EH         LINE#         381
  C:22A7H         LINE#         382
  C:22A7H         LINE#         383
  C:22AEH         LINE#         384
  C:22B7H         LINE#         385
  C:22B7H         LINE#         386
  C:22BEH         LINE#         387
  C:22C7H         LINE#         388
  C:22C7H         LINE#         390
  C:22CEH         LINE#         391
  C:22D7H         LINE#         392
  C:22D7H         LINE#         394
  C:22E3H         LINE#         395
  C:22ECH         LINE#         396
  C:22ECH         LINE#         398
  C:22F5H         LINE#         400
  C:2306H         LINE#         402
  C:230AH         LINE#         403
  C:2319H         LINE#         404
  C:231CH         LINE#         405
  C:232BH         LINE#         406
  C:232EH         LINE#         407
  -------         ENDPROC       TASKMGR
  -------         ENDMOD        OS_TASKMGR

BL51 BANKED LINKER/LOCATER V6.22.2.0                                                  07/08/2024  03:11:28  PAGE 28


  -------         MODULE        OS_TIMING
  C:0000H         SYMBOL        _ICE_DUMMY_
  D:0080H         PUBLIC        P0
  D:0090H         PUBLIC        P1
  D:00A0H         PUBLIC        P2
  D:00B0H         PUBLIC        P3
  D:00C0H         PUBLIC        P4
  D:00C8H         PUBLIC        P5
  D:00E8H         PUBLIC        P6
  D:00F8H         PUBLIC        P7
  D:00A8H         PUBLIC        IE
  D:00B8H         PUBLIC        IP
  D:0098H         PUBLIC        SCON
  D:0088H         PUBLIC        TCON
  C:479DH         PUBLIC        s_init_timing
  D:00D0H         PUBLIC        PSW
  -------         PROC          S_INIT_TIMING
  -------         DO            
  D:0003H         SYMBOL        i
  -------         ENDDO         
  C:479DH         LINE#         429
  C:479DH         LINE#         430
  C:479DH         LINE#         433
  C:47A9H         LINE#         434
  C:47B9H         LINE#         435
  C:47C9H         LINE#         436
  C:47CCH         LINE#         438
  C:47F1H         LINE#         635
  C:47FDH         LINE#         636
  C:480DH         LINE#         637
  C:481DH         LINE#         638
  C:4820H         LINE#         640
  C:4845H         LINE#         642
  C:486AH         LINE#         843
  C:487EH         LINE#         848
  -------         ENDPROC       S_INIT_TIMING
  -------         ENDMOD        OS_TIMING

  -------         MODULE        OS_VAR
  C:0000H         SYMBOL        _ICE_DUMMY_
  B:0025H.3       PUBLIC        s_sign_debug_send
  D:0008H         PUBLIC        s_task_switch
  D:0080H         PUBLIC        P0
  D:0090H         PUBLIC        P1
  D:00A0H         PUBLIC        P2
  D:00B0H         PUBLIC        P3
  D:00C0H         PUBLIC        P4
  X:0120H         PUBLIC        s_taskmgr_sendbuff
  B:0025H.4       PUBLIC        s_sign_debug_recv
  X:03DFH         PUBLIC        s_timint_autoreload
  D:00C8H         PUBLIC        P5
  D:00E8H         PUBLIC        P6
  D:00F8H         PUBLIC        P7
  B:0025H.5       PUBLIC        s_sign_return
  D:00A8H         PUBLIC        IE
  X:03E0H         PUBLIC        s_timqry_autoreload
  X:03E2H         PUBLIC        s_debug_recvbuff
BL51 BANKED LINKER/LOCATER V6.22.2.0                                                  07/08/2024  03:11:28  PAGE 29


  X:042AH         PUBLIC        s_tick_counter1
  X:042EH         PUBLIC        s_tick_counter2
  D:00B8H         PUBLIC        IP
  X:0432H         PUBLIC        s_timint_hookortask
  D:000AH         PUBLIC        s_pc
  X:0433H         PUBLIC        s_timqry_hookortask
  B:0025H.6       PUBLIC        s_sign_updatecopy
  D:000CH         PUBLIC        s_taskcri_counter
  D:000DH         PUBLIC        s_debug_sendtype
  D:0098H         PUBLIC        SCON
  D:0088H         PUBLIC        TCON
  B:0025H.7       PUBLIC        s_sign_schedule
  X:0435H         PUBLIC        s_timint_handle
  D:000EH         PUBLIC        s_task_status0
  D:000FH         PUBLIC        s_debug_sendptr
  X:0437H         PUBLIC        s_timint_loader
  X:0439H         PUBLIC        s_timint_reload
  D:0011H         PUBLIC        s_debug_recvptr
  X:043BH         PUBLIC        s_timqry_handle
  B:0026H.0       PUBLIC        s_sign_schedule_all
  X:043FH         PUBLIC        s_timqry_loader
  X:0443H         PUBLIC        s_timqry_reload
  X:0447H         PUBLIC        s_alarm
  D:0013H         PUBLIC        s_taskpri_tail
  B:0026H.1       PUBLIC        s_sign_taskmgr
  D:0015H         PUBLIC        s_tick_counter
  X:0448H         PUBLIC        s_cmdline_sendbuff
  D:0016H         PUBLIC        s_startup_code
  D:0017H         PUBLIC        s_task_current
  X:0490H         PUBLIC        s_fault
  B:0026H.2       PUBLIC        s_sign_send_taskmsg
  D:0019H         PUBLIC        s_task_starter
  D:00D0H         PUBLIC        PSW
  -------         ENDMOD        OS_VAR

  -------         MODULE        SV_INT_LOC
  C:0000H         SYMBOL        _ICE_DUMMY_
  D:0080H         PUBLIC        P0
  D:0090H         PUBLIC        P1
  D:00A0H         PUBLIC        P2
  D:00B0H         PUBLIC        P3
  D:00C0H         PUBLIC        P4
  D:00C8H         PUBLIC        P5
  D:00E8H         PUBLIC        P6
  D:00F8H         PUBLIC        P7
  D:00A8H         PUBLIC        IE
  C:3D5EH         PUBLIC        _si_recv_msg
  D:00B8H         PUBLIC        IP
  C:64F5H         SYMBOL        __recv_msg_
  C:6505H         PUBLIC        si_task_schedule
  D:0098H         PUBLIC        SCON
  D:0088H         PUBLIC        TCON
  B:0088H.1       PUBLIC        IE0
  C:646EH         PUBLIC        _si_take_binary
  C:5A13H         PUBLIC        _si_can_access_queue
  C:64D3H         PUBLIC        _si_recv_fetion
  C:636CH         PUBLIC        _si_recv_mail
BL51 BANKED LINKER/LOCATER V6.22.2.0                                                  07/08/2024  03:11:28  PAGE 30


  D:00D0H         PUBLIC        PSW
  -------         PROC          SI_TASK_SCHEDULE
  C:6505H         LINE#         23
  C:6505H         LINE#         24
  C:6505H         LINE#         25
  C:6507H         LINE#         26
  C:6509H         LINE#         27
  C:650BH         LINE#         28
  -------         ENDPROC       SI_TASK_SCHEDULE
  -------         PROC          _SI_TAKE_BINARY
  D:0082H         SYMBOL        bin
  C:646EH         LINE#         36
  C:6472H         LINE#         37
  C:6472H         LINE#         38
  C:6475H         LINE#         39
  C:6477H         LINE#         40
  C:647AH         LINE#         41
  C:647AH         LINE#         42
  C:647CH         LINE#         43
  -------         ENDPROC       _SI_TAKE_BINARY
  -------         PROC          _SI_RECV_FETION
  D:0082H         SYMBOL        fet
  -------         DO            
  D:0007H         SYMBOL        fetion
  -------         ENDDO         
  C:64D3H         LINE#         52
  C:64D7H         LINE#         53
  C:64D7H         LINE#         54
  C:64D9H         LINE#         55
  C:64DBH         LINE#         56
  C:64DBH         LINE#         57
  -------         ENDPROC       _SI_RECV_FETION
  -------         PROC          _SI_RECV_MAIL
  D:0082H         SYMBOL        mbox
  C:636CH         LINE#         66
  C:6370H         LINE#         67
  C:6370H         LINE#         68
  C:6373H         LINE#         69
  C:6375H         LINE#         70
  C:637FH         LINE#         71
  C:637FH         LINE#         72
  C:6385H         LINE#         73
  -------         ENDPROC       _SI_RECV_MAIL
  -------         PROC          _SI_CAN_ACCESS_QUEUE
  D:0004H         SYMBOL        queue
  C:5A13H         LINE#         85
  C:5A19H         LINE#         86
  C:5A19H         LINE#         87
  C:5A27H         LINE#         88
  C:5A32H         LINE#         90
  C:5A3DH         LINE#         92
  C:5A44H         LINE#         94
  C:5A46H         LINE#         95
  C:5A51H         LINE#         96
  C:5A54H         LINE#         98
  C:5A60H         LINE#         99
  C:5A62H         LINE#         100
BL51 BANKED LINKER/LOCATER V6.22.2.0                                                  07/08/2024  03:11:28  PAGE 31


  -------         ENDPROC       _SI_CAN_ACCESS_QUEUE
  -------         PROC          __RECV_MSG_
  D:0082H         SYMBOL        mut
  D:0001H         SYMBOL        msg
  C:64F5H         LINE#         102
  C:64F9H         LINE#         103
  C:64F9H         LINE#         104
  C:64FCH         LINE#         105
  C:64FCH         LINE#         106
  -------         ENDPROC       __RECV_MSG_
  -------         PROC          _SI_RECV_MSG
  X:00FBH         SYMBOL        queue
  -------         DO            
  X:00FDH         SYMBOL        msg
  -------         ENDDO         
  C:3D5EH         LINE#         108
  C:3D66H         LINE#         109
  C:3D66H         LINE#         111
  C:3EDFH         LINE#         112
  -------         ENDPROC       _SI_RECV_MSG
  -------         ENDMOD        SV_INT_LOC

  -------         MODULE        SV_INT_PEND_FIFO
  C:0000H         SYMBOL        _ICE_DUMMY_
  C:6406H         PUBLIC        __send_sign_
  D:0080H         PUBLIC        P0
  C:5009H         SYMBOL        __gvar_write_
  D:0090H         PUBLIC        P1
  D:00A0H         PUBLIC        P2
  D:00B0H         PUBLIC        P3
  D:00C0H         PUBLIC        P4
  D:00C8H         PUBLIC        P5
  D:00E8H         PUBLIC        P6
  D:00F8H         PUBLIC        P7
  D:00A8H         PUBLIC        IE
  C:5CABH         SYMBOL        __give_sem_
  C:3361H         SYMBOL        __send_msg_
  D:00B8H         PUBLIC        IP
  D:0098H         PUBLIC        SCON
  D:0088H         PUBLIC        TCON
  C:647DH         SYMBOL        __pendsvc_
  C:5D28H         SYMBOL        __clear_block_
  C:620CH         SYMBOL        __binary_
  C:5F6EH         SYMBOL        __delete_task_
  C:62A8H         SYMBOL        __send_fetion_
  C:5E19H         SYMBOL        __timint_
  C:5E8DH         SYMBOL        __suspend_task_
  C:5E53H         SYMBOL        __timqry_
  C:61B4H         SYMBOL        __resume_task_
  C:3BB0H         SYMBOL        __group_
  C:0046H         SYMBOL        __set_taskpri_
  C:6311H         PUBLIC        _sPendSV_FIFOHandler
  C:5C68H         SYMBOL        __send_mail_
  D:00D0H         PUBLIC        PSW
  C:5137H         SYMBOL        __set_block_
  -------         PROC          __RESUME_TASK_
  D:0082H         SYMBOL        sv
BL51 BANKED LINKER/LOCATER V6.22.2.0                                                  07/08/2024  03:11:28  PAGE 32


  -------         DO            
  D:0006H         SYMBOL        node
  -------         ENDDO         
  C:61B4H         LINE#         13
  C:61B8H         LINE#         14
  C:61B8H         LINE#         15
  C:61BEH         LINE#         16
  C:61C1H         LINE#         17
  C:61CFH         LINE#         18
  C:61DCH         LINE#         19
  C:61DFH         LINE#         20
  C:61DFH         LINE#         21
  -------         ENDPROC       __RESUME_TASK_
  -------         PROC          __SUSPEND_TASK_
  D:0082H         SYMBOL        sv
  -------         DO            
  D:0006H         SYMBOL        node
  -------         ENDDO         
  C:5E8DH         LINE#         24
  C:5E91H         LINE#         25
  C:5E91H         LINE#         26
  C:5E97H         LINE#         27
  C:5E9AH         LINE#         28
  C:5EAEH         LINE#         29
  C:5EBBH         LINE#         30
  C:5EC3H         LINE#         31
  C:5EC5H         LINE#         32
  C:5EC5H         LINE#         33
  C:5EC5H         LINE#         34
  -------         ENDPROC       __SUSPEND_TASK_
  -------         PROC          __DELETE_TASK_
  D:0082H         SYMBOL        sv
  -------         DO            
  D:0006H         SYMBOL        node
  -------         ENDDO         
  C:5F6EH         LINE#         37
  C:5F72H         LINE#         38
  C:5F72H         LINE#         39
  C:5F78H         LINE#         40
  C:5F7BH         LINE#         41
  C:5F8EH         LINE#         42
  C:5F9AH         LINE#         43
  C:5FA2H         LINE#         44
  C:5FA4H         LINE#         45
  C:5FA4H         LINE#         46
  C:5FA4H         LINE#         47
  -------         ENDPROC       __DELETE_TASK_
  -------         PROC          __SET_TASKPRI_
  D:0006H         SYMBOL        sv
  -------         DO            
  D:0004H         SYMBOL        node
  -------         DO            
  X:0648H         SYMBOL        pri
  -------         ENDDO         
  -------         ENDDO         
  C:0046H         LINE#         50
  C:0046H         LINE#         51
BL51 BANKED LINKER/LOCATER V6.22.2.0                                                  07/08/2024  03:11:28  PAGE 33


  C:0046H         LINE#         52
  C:0050H         LINE#         53
  C:0053H         LINE#         54
  C:0066H         LINE#         55
  C:0073H         LINE#         56
  C:0080H         LINE#         57
  C:0090H         LINE#         58
  C:0097H         LINE#         59
  C:0099H         LINE#         60
  C:0099H         LINE#         61
  C:0099H         LINE#         62
  -------         ENDPROC       __SET_TASKPRI_
  -------         PROC          __SET_BLOCK_
  X:060FH         SYMBOL        sv
  -------         DO            
  X:0611H         SYMBOL        node
  -------         ENDDO         
  C:5137H         LINE#         65
  C:513FH         LINE#         66
  C:513FH         LINE#         67
  C:5151H         LINE#         68
  C:5154H         LINE#         69
  C:516EH         LINE#         70
  C:5183H         LINE#         71
  C:5195H         LINE#         72
  C:5198H         LINE#         73
  C:5198H         LINE#         74
  C:51BFH         LINE#         75
  C:51BFH         LINE#         76
  -------         ENDPROC       __SET_BLOCK_
  -------         PROC          __CLEAR_BLOCK_
  D:0082H         SYMBOL        sv
  -------         DO            
  D:0006H         SYMBOL        node
  -------         ENDDO         
  C:5D28H         LINE#         79
  C:5D2CH         LINE#         80
  C:5D2CH         LINE#         81
  C:5D32H         LINE#         82
  C:5D35H         LINE#         83
  C:5D49H         LINE#         84
  C:5D54H         LINE#         85
  C:5D61H         LINE#         86
  C:5D64H         LINE#         87
  C:5D64H         LINE#         88
  -------         ENDPROC       __CLEAR_BLOCK_
  -------         PROC          __TIMINT_
  D:0006H         SYMBOL        sv
  C:5E19H         LINE#         92
  C:5E19H         LINE#         93
  C:5E19H         LINE#         96
  C:5E52H         LINE#         97
  -------         ENDPROC       __TIMINT_
  -------         PROC          __TIMQRY_
  D:0006H         SYMBOL        sv
  C:5E53H         LINE#         104
  C:5E53H         LINE#         105
BL51 BANKED LINKER/LOCATER V6.22.2.0                                                  07/08/2024  03:11:28  PAGE 34


  C:5E53H         LINE#         108
  C:5E8CH         LINE#         109
  -------         ENDPROC       __TIMQRY_
  -------         PROC          __BINARY_
  D:0006H         SYMBOL        sv
  -------         DO            
  D:0004H         SYMBOL        bin
  -------         ENDDO         
  C:620CH         LINE#         116
  C:620CH         LINE#         117
  C:620CH         LINE#         118
  C:6216H         LINE#         119
  C:6223H         LINE#         120
  C:622AH         LINE#         121
  C:6233H         LINE#         122
  -------         ENDPROC       __BINARY_
  -------         PROC          __GIVE_SEM_
  D:0082H         SYMBOL        sv
  -------         DO            
  D:0006H         SYMBOL        sem
  -------         ENDDO         
  C:5CABH         LINE#         129
  C:5CAFH         LINE#         130
  C:5CAFH         LINE#         131
  C:5CB5H         LINE#         132
  C:5CCEH         LINE#         133
  C:5CD9H         LINE#         134
  C:5CD9H         LINE#         135
  -------         ENDPROC       __GIVE_SEM_
  -------         PROC          __SEND_FETION_
  D:0006H         SYMBOL        sv
  -------         DO            
  D:0004H         SYMBOL        tbox
  -------         ENDDO         
  C:62A8H         LINE#         143
  C:62A8H         LINE#         144
  C:62A8H         LINE#         145
  C:62B2H         LINE#         146
  C:62BFH         LINE#         147
  -------         ENDPROC       __SEND_FETION_
  -------         PROC          __SEND_MAIL_
  D:0006H         SYMBOL        sv
  -------         DO            
  D:0004H         SYMBOL        mbox
  -------         ENDDO         
  C:5C68H         LINE#         155
  C:5C68H         LINE#         156
  C:5C68H         LINE#         157
  C:5C72H         LINE#         158
  C:5C78H         LINE#         159
  C:5C93H         LINE#         160
  C:5C9AH         LINE#         161
  -------         ENDPROC       __SEND_MAIL_
  -------         PROC          __SEND_MSG_
  X:05FDH         SYMBOL        sv
  -------         DO            
  X:05FFH         SYMBOL        queue
BL51 BANKED LINKER/LOCATER V6.22.2.0                                                  07/08/2024  03:11:28  PAGE 35


  -------         DO            
  X:0601H         SYMBOL        node
  -------         ENDDO         
  -------         ENDDO         
  C:3361H         LINE#         169
  C:3369H         LINE#         170
  C:3369H         LINE#         171
  C:337BH         LINE#         172
  C:3385H         LINE#         174
  C:33AAH         LINE#         176
  C:33B1H         LINE#         178
  C:33BBH         LINE#         180
  C:33BBH         LINE#         181
  C:33D0H         LINE#         182
  C:33D6H         LINE#         183
  C:33E4H         LINE#         184
  C:33E7H         LINE#         186
  C:33EEH         LINE#         188
  C:33FEH         LINE#         190
  C:33FEH         LINE#         191
  C:34C3H         LINE#         192
  C:34C6H         LINE#         194
  C:358AH         LINE#         196
  C:35A1H         LINE#         197
  C:35B3H         LINE#         198
  -------         ENDPROC       __SEND_MSG_
  -------         PROC          __GROUP_
  X:0631H         SYMBOL        sv
  C:3BB0H         LINE#         205
  C:3BB8H         LINE#         206
  C:3BB8H         LINE#         207
  C:3BE6H         LINE#         208
  C:3C14H         LINE#         209
  C:3C4AH         LINE#         210
  C:3C90H         LINE#         211
  C:3CCAH         LINE#         212
  C:3D0FH         LINE#         213
  C:3D5DH         LINE#         214
  C:3D5DH         LINE#         215
  -------         ENDPROC       __GROUP_
  -------         PROC          __GVAR_WRITE_
  X:0633H         SYMBOL        sv
  C:5009H         LINE#         221
  C:5011H         LINE#         222
  C:5011H         LINE#         225
  C:50A0H         LINE#         226
  -------         ENDPROC       __GVAR_WRITE_
  -------         PROC          __PENDSVC_
  D:0082H         SYMBOL        sv
  C:647DH         LINE#         229
  C:6481H         LINE#         230
  C:6481H         LINE#         231
  -------         ENDPROC       __PENDSVC_
  -------         PROC          __SEND_SIGN_
  D:0082H         SYMBOL        sv
  C:6406H         LINE#         235
  C:640AH         LINE#         236
BL51 BANKED LINKER/LOCATER V6.22.2.0                                                  07/08/2024  03:11:28  PAGE 36


  C:640AH         LINE#         237
  -------         ENDPROC       __SEND_SIGN_
  -------         ENDMOD        SV_INT_PEND_FIFO

  -------         MODULE        SV_INT_PEND_FLAG
  C:0000H         SYMBOL        _ICE_DUMMY_
  D:0080H         PUBLIC        P0
  C:56CDH         PUBLIC        _sp_set_block
  D:0090H         PUBLIC        P1
  D:00A0H         PUBLIC        P2
  D:00B0H         PUBLIC        P3
  D:00C0H         PUBLIC        P4
  D:00C8H         PUBLIC        P5
  D:00E8H         PUBLIC        P6
  D:00F8H         PUBLIC        P7
  D:00A8H         PUBLIC        IE
  D:00B8H         PUBLIC        IP
  D:0098H         PUBLIC        SCON
  D:0088H         PUBLIC        TCON
  C:5FA5H         PUBLIC        _sp_clear_block
  C:612DH         PUBLIC        _sp_delete_task
  C:6418H         PUBLIC        _sp_write_binary
  C:609FH         PUBLIC        _sp_suspend_task
  C:62CCH         PUBLIC        _sp_resume_task
  C:000EH         PUBLIC        _sp_set_taskpri
  D:00D0H         PUBLIC        PSW
  -------         PROC          _SP_RESUME_TASK
  D:0006H         SYMBOL        node
  C:62CCH         LINE#         13
  C:62CCH         LINE#         14
  C:62CCH         LINE#         15
  C:62D0H         LINE#         16
  C:62DEH         LINE#         17
  C:62EBH         LINE#         18
  C:62EEH         LINE#         19
  C:62EEH         LINE#         20
  -------         ENDPROC       _SP_RESUME_TASK
  -------         PROC          _SP_SUSPEND_TASK
  D:0006H         SYMBOL        node
  C:609FH         LINE#         23
  C:609FH         LINE#         24
  C:609FH         LINE#         25
  C:60A3H         LINE#         26
  C:60B7H         LINE#         27
  C:60C4H         LINE#         28
  C:60CCH         LINE#         29
  C:60CEH         LINE#         30
  C:60CEH         LINE#         31
  C:60CEH         LINE#         32
  -------         ENDPROC       _SP_SUSPEND_TASK
  -------         PROC          _SP_DELETE_TASK
  D:0006H         SYMBOL        node
  C:612DH         LINE#         35
  C:612DH         LINE#         36
  C:612DH         LINE#         37
  C:6131H         LINE#         38
  C:6144H         LINE#         39
BL51 BANKED LINKER/LOCATER V6.22.2.0                                                  07/08/2024  03:11:28  PAGE 37


  C:6150H         LINE#         40
  C:6158H         LINE#         41
  C:615AH         LINE#         42
  C:615AH         LINE#         43
  C:615AH         LINE#         44
  -------         ENDPROC       _SP_DELETE_TASK
  -------         PROC          _SP_SET_TASKPRI
  D:0006H         SYMBOL        node
  D:0005H         SYMBOL        pri
  C:000EH         LINE#         47
  C:000EH         LINE#         48
  C:000EH         LINE#         49
  C:0012H         LINE#         50
  C:0025H         LINE#         51
  C:0032H         LINE#         52
  C:003DH         LINE#         53
  C:0040H         LINE#         54
  C:0042H         LINE#         55
  C:0042H         LINE#         56
  C:0042H         LINE#         57
  -------         ENDPROC       _SP_SET_TASKPRI
  -------         PROC          _SP_SET_BLOCK
  X:0613H         SYMBOL        node
  X:0615H         SYMBOL        tick
  C:56CDH         LINE#         60
  C:56DDH         LINE#         61
  C:56DDH         LINE#         62
  C:56E0H         LINE#         63
  C:56FAH         LINE#         64
  C:5704H         LINE#         65
  C:5716H         LINE#         66
  C:5719H         LINE#         67
  C:5719H         LINE#         68
  C:5735H         LINE#         69
  C:5735H         LINE#         70
  -------         ENDPROC       _SP_SET_BLOCK
  -------         PROC          _SP_CLEAR_BLOCK
  D:0006H         SYMBOL        node
  C:5FA5H         LINE#         73
  C:5FA5H         LINE#         74
  C:5FA5H         LINE#         75
  C:5FA9H         LINE#         76
  C:5FBDH         LINE#         77
  C:5FC8H         LINE#         78
  C:5FD5H         LINE#         79
  C:5FD8H         LINE#         80
  C:5FD8H         LINE#         81
  -------         ENDPROC       _SP_CLEAR_BLOCK
  -------         PROC          _SP_WRITE_BINARY
  D:0082H         SYMBOL        bin
  D:0005H         SYMBOL        value
  C:6418H         LINE#         85
  C:641CH         LINE#         86
  C:641CH         LINE#         87
  C:641EH         LINE#         88
  C:6420H         LINE#         89
  C:6429H         LINE#         90
BL51 BANKED LINKER/LOCATER V6.22.2.0                                                  07/08/2024  03:11:28  PAGE 38


  -------         ENDPROC       _SP_WRITE_BINARY
  -------         ENDMOD        SV_INT_PEND_FLAG

  -------         MODULE        SV_TASK
  C:0000H         SYMBOL        _ICE_DUMMY_
  D:0080H         PUBLIC        P0
  D:0090H         PUBLIC        P1
  C:4B93H         PUBLIC        _su_recv_mail
  D:00A0H         PUBLIC        P2
  D:00B0H         PUBLIC        P3
  D:00C0H         PUBLIC        P4
  D:00C8H         PUBLIC        P5
  C:5348H         PUBLIC        _su_set_block
  D:00E8H         PUBLIC        P6
  D:00F8H         PUBLIC        P7
  C:4033H         PUBLIC        _su_take_mutex
  D:00A8H         PUBLIC        IE
  C:4162H         PUBLIC        _su_wait_group
  C:5C24H         PUBLIC        _su_query_group
  D:00B8H         PUBLIC        IP
  C:4950H         PUBLIC        _su_take_semaphore
  C:650CH         PUBLIC        su_enter_critical
  C:37DCH         PUBLIC        _su_send_msg
  C:5EC6H         PUBLIC        _su_give_semaphore
  C:2331H         PUBLIC        _su_recv_msg
  C:64C0H         PUBLIC        su_task_schedule
  D:0098H         PUBLIC        SCON
  D:0088H         PUBLIC        TCON
  C:6246H         PUBLIC        su_exit_critical
  C:6518H         SYMBOL        __ret_vptr_
  B:0088H.1       PUBLIC        IE0
  C:0006H         PUBLIC        su_enter_critical_one
  C:5BDFH         PUBLIC        _su_clear_block
  C:4CE5H         PUBLIC        _su_resume_suspend
  B:00A8H.1       PUBLIC        ET0
  C:53C2H         PUBLIC        _su_talloc
  B:00A8H.0       PUBLIC        EX0
  C:6524H         PUBLIC        _su_xalloc
  C:5B4BH         PUBLIC        _su_delete_task
  C:4ADDH         PUBLIC        _su_take_binary
  C:64A9H         SYMBOL        __recv_fetion_
  C:585BH         PUBLIC        _su_recv_taskmsg
  C:5B95H         PUBLIC        _su_delay
  C:6513H         PUBLIC        su_exit_critical_one
  C:6521H         PUBLIC        _su_return_voidptr
  C:58B9H         PUBLIC        _su_init_mempool
  C:63E1H         PUBLIC        _su_give_binary
  C:57FBH         PUBLIC        _su_recv_fetion
  C:54ADH         PUBLIC        _su_suspend_task
  C:55F9H         PUBLIC        _su_wait_binary
  C:6062H         PUBLIC        su_exit_critical_psv
  C:5AB2H         PUBLIC        _su_back_mutex
  C:5247H         PUBLIC        _su_resume_task
  C:4F6DH         PUBLIC        _su_startup_task
  C:52C9H         PUBLIC        _su_set_taskpri
  D:00D0H         PUBLIC        PSW
  C:61E0H         PUBLIC        _su_send_mail
BL51 BANKED LINKER/LOCATER V6.22.2.0                                                  07/08/2024  03:11:28  PAGE 39


  -------         PROC          SU_ENTER_CRITICAL
  C:650CH         LINE#         15
  C:650CH         LINE#         16
  C:650CH         LINE#         17
  C:6510H         LINE#         18
  C:6512H         LINE#         19
  -------         ENDPROC       SU_ENTER_CRITICAL
  C:6241H         SYMBOL        L?0299
  -------         PROC          L?0298
  -------         ENDPROC       L?0298
  C:6241H         SYMBOL        L?0299
  -------         PROC          SU_EXIT_CRITICAL
  C:6246H         LINE#         22
  C:6246H         LINE#         23
  C:6246H         LINE#         24
  C:6249H         LINE#         25
  C:6249H         LINE#         26
  C:624CH         LINE#         27
  C:624EH         LINE#         28
  C:6252H         LINE#         32
  C:6257H         LINE#         33
  C:6257H         LINE#         34
  C:6257H         LINE#         35
  C:625BH         LINE#         36
  C:625BH         LINE#         37
  C:625BH         LINE#         38
  -------         ENDPROC       SU_EXIT_CRITICAL
  -------         PROC          _SU_RETURN_VOIDPTR
  D:0001H         SYMBOL        p
  C:6521H         LINE#         41
  C:6521H         LINE#         42
  C:6521H         LINE#         43
  -------         ENDPROC       _SU_RETURN_VOIDPTR
  -------         PROC          SU_ENTER_CRITICAL_ONE
  C:0006H         LINE#         48
  C:0006H         LINE#         49
  C:0006H         LINE#         50
  C:000AH         LINE#         51
  -------         ENDPROC       SU_ENTER_CRITICAL_ONE
  -------         PROC          SU_EXIT_CRITICAL_ONE
  C:6513H         LINE#         54
  C:6513H         LINE#         55
  C:6513H         LINE#         56
  C:6517H         LINE#         57
  -------         ENDPROC       SU_EXIT_CRITICAL_ONE
  C:6042H         SYMBOL        L?0296
  C:6052H         SYMBOL        L?0297
  -------         PROC          L?0295
  -------         ENDPROC       L?0295
  C:6042H         SYMBOL        L?0296
  C:6052H         SYMBOL        L?0297
  -------         PROC          SU_EXIT_CRITICAL_PSV
  C:6062H         LINE#         60
  C:6062H         LINE#         61
  C:6062H         LINE#         62
  C:6064H         LINE#         63
  C:6066H         LINE#         64
BL51 BANKED LINKER/LOCATER V6.22.2.0                                                  07/08/2024  03:11:28  PAGE 40


  C:606AH         LINE#         68
  C:606DH         LINE#         69
  -------         ENDPROC       SU_EXIT_CRITICAL_PSV
  -------         PROC          SU_TASK_SCHEDULE
  C:64C0H         LINE#         72
  C:64C0H         LINE#         73
  C:64C0H         LINE#         74
  C:64C3H         LINE#         75
  C:64C5H         LINE#         76
  C:64C7H         LINE#         77
  -------         ENDPROC       SU_TASK_SCHEDULE
  -------         PROC          _SU_STARTUP_TASK
  X:0617H         SYMBOL        hand
  X:0619H         SYMBOL        entry
  D:0003H         SYMBOL        status
  -------         DO            
  D:0043H         SYMBOL        tid
  -------         ENDDO         
  C:4F6DH         LINE#         81
  C:4F7DH         LINE#         82
  C:4F7DH         LINE#         84
  C:4F85H         LINE#         85
  C:4F87H         LINE#         86
  C:4F96H         LINE#         87
  C:4F96H         LINE#         88
  C:4FB5H         LINE#         89
  C:4FC0H         LINE#         90
  C:4FC2H         LINE#         91
  C:4FC2H         LINE#         92
  C:4FC6H         LINE#         93
  C:4FC6H         LINE#         94
  C:4FDDH         LINE#         95
  C:4FF3H         LINE#         96
  C:4FF3H         LINE#         97
  C:4FFEH         LINE#         98
  C:5001H         LINE#         99
  C:5003H         LINE#         100
  C:5003H         LINE#         101
  C:5006H         LINE#         102
  C:5008H         LINE#         103
  -------         ENDPROC       _SU_STARTUP_TASK
  -------         PROC          _SU_SUSPEND_TASK
  D:0006H         SYMBOL        node
  C:54ADH         LINE#         106
  C:54ADH         LINE#         107
  C:54ADH         LINE#         108
  C:54B1H         LINE#         109
  C:54B1H         LINE#         110
  C:54B3H         LINE#         111
  C:54B3H         LINE#         112
  C:54C7H         LINE#         113
  C:54D4H         LINE#         114
  C:54DCH         LINE#         115
  C:54DEH         LINE#         116
  C:54DEH         LINE#         117
  C:54E1H         LINE#         118
  C:54E4H         LINE#         119
BL51 BANKED LINKER/LOCATER V6.22.2.0                                                  07/08/2024  03:11:28  PAGE 41


  C:54E4H         LINE#         120
  C:54F2H         LINE#         121
  C:54F5H         LINE#         122
  C:54F8H         LINE#         123
  C:54F8H         LINE#         124
  C:54FCH         LINE#         125
  C:54FFH         LINE#         126
  C:5502H         LINE#         127
  C:5502H         LINE#         128
  C:5510H         LINE#         129
  C:5513H         LINE#         130
  C:5516H         LINE#         131
  C:5516H         LINE#         132
  C:5516H         LINE#         133
  C:5519H         LINE#         134
  C:551BH         LINE#         135
  C:551BH         LINE#         136
  -------         ENDPROC       _SU_SUSPEND_TASK
  -------         PROC          _SU_RESUME_TASK
  X:0635H         SYMBOL        node
  C:5247H         LINE#         139
  C:524FH         LINE#         140
  C:524FH         LINE#         141
  C:5252H         LINE#         142
  C:5252H         LINE#         143
  C:5254H         LINE#         144
  C:5254H         LINE#         145
  C:5269H         LINE#         146
  C:5276H         LINE#         147
  C:5279H         LINE#         148
  C:527CH         LINE#         149
  C:527FH         LINE#         150
  C:527FH         LINE#         151
  C:5299H         LINE#         152
  C:529CH         LINE#         153
  C:529FH         LINE#         154
  C:529FH         LINE#         155
  C:52A3H         LINE#         156
  C:52A6H         LINE#         157
  C:52A9H         LINE#         158
  C:52A9H         LINE#         159
  C:52BDH         LINE#         160
  C:52C0H         LINE#         161
  C:52C3H         LINE#         162
  C:52C3H         LINE#         163
  C:52C3H         LINE#         164
  C:52C6H         LINE#         165
  C:52C8H         LINE#         166
  C:52C8H         LINE#         167
  -------         ENDPROC       _SU_RESUME_TASK
  -------         PROC          _SU_RESUME_SUSPEND
  X:0637H         SYMBOL        node
  C:4CE5H         LINE#         170
  C:4CEDH         LINE#         171
  C:4CEDH         LINE#         172
  C:4CF0H         LINE#         173
  C:4CF0H         LINE#         174
BL51 BANKED LINKER/LOCATER V6.22.2.0                                                  07/08/2024  03:11:28  PAGE 42


  C:4CF3H         LINE#         175
  C:4CF3H         LINE#         176
  C:4D08H         LINE#         177
  C:4D15H         LINE#         178
  C:4D15H         LINE#         179
  C:4D28H         LINE#         180
  C:4D37H         LINE#         181
  C:4D3AH         LINE#         182
  C:4D3CH         LINE#         183
  C:4D3FH         LINE#         184
  C:4D42H         LINE#         185
  C:4D42H         LINE#         186
  C:4D5CH         LINE#         187
  C:4D5FH         LINE#         188
  C:4D62H         LINE#         189
  C:4D62H         LINE#         190
  C:4D66H         LINE#         191
  C:4D69H         LINE#         192
  C:4D6CH         LINE#         193
  C:4D6CH         LINE#         194
  C:4D80H         LINE#         195
  C:4D83H         LINE#         196
  C:4D86H         LINE#         197
  C:4D86H         LINE#         198
  C:4D86H         LINE#         199
  C:4D89H         LINE#         200
  C:4D8BH         LINE#         201
  C:4D8BH         LINE#         202
  -------         ENDPROC       _SU_RESUME_SUSPEND
  -------         PROC          _SU_DELETE_TASK
  D:0006H         SYMBOL        node
  C:5B4BH         LINE#         205
  C:5B4BH         LINE#         206
  C:5B4BH         LINE#         207
  C:5B4FH         LINE#         208
  C:5B4FH         LINE#         209
  C:5B51H         LINE#         210
  C:5B51H         LINE#         211
  C:5B67H         LINE#         212
  C:5B73H         LINE#         213
  C:5B7BH         LINE#         214
  C:5B7DH         LINE#         215
  C:5B7DH         LINE#         216
  C:5B80H         LINE#         217
  C:5B83H         LINE#         218
  C:5B83H         LINE#         219
  C:5B89H         LINE#         220
  C:5B8CH         LINE#         221
  C:5B8FH         LINE#         222
  C:5B8FH         LINE#         223
  C:5B8FH         LINE#         224
  C:5B92H         LINE#         225
  C:5B94H         LINE#         226
  C:5B94H         LINE#         227
  -------         ENDPROC       _SU_DELETE_TASK
  -------         PROC          _SU_SET_TASKPRI
  X:0639H         SYMBOL        node
BL51 BANKED LINKER/LOCATER V6.22.2.0                                                  07/08/2024  03:11:28  PAGE 43


  D:0005H         SYMBOL        pri
  C:52C9H         LINE#         230
  C:52D1H         LINE#         231
  C:52D1H         LINE#         232
  C:52D4H         LINE#         233
  C:52D4H         LINE#         234
  C:52D6H         LINE#         235
  C:52D6H         LINE#         236
  C:52F0H         LINE#         237
  C:52FDH         LINE#         238
  C:530CH         LINE#         239
  C:530FH         LINE#         240
  C:5311H         LINE#         241
  C:5314H         LINE#         242
  C:5317H         LINE#         243
  C:5317H         LINE#         244
  C:5317H         LINE#         245
  C:531AH         LINE#         246
  C:531DH         LINE#         247
  C:531DH         LINE#         248
  C:531DH         LINE#         249
  C:5331H         LINE#         250
  C:5334H         LINE#         251
  C:5337H         LINE#         252
  C:5337H         LINE#         253
  C:533CH         LINE#         254
  C:533FH         LINE#         255
  C:5342H         LINE#         256
  C:5342H         LINE#         257
  C:5342H         LINE#         258
  C:5345H         LINE#         259
  C:5347H         LINE#         260
  C:5347H         LINE#         261
  -------         ENDPROC       _SU_SET_TASKPRI
  -------         PROC          _SU_SET_BLOCK
  X:061BH         SYMBOL        node
  X:061DH         SYMBOL        tick
  C:5348H         LINE#         264
  C:5358H         LINE#         265
  C:5358H         LINE#         266
  C:535BH         LINE#         267
  C:535EH         LINE#         268
  C:5361H         LINE#         269
  C:5361H         LINE#         270
  C:537BH         LINE#         271
  C:5385H         LINE#         272
  C:5397H         LINE#         273
  C:539AH         LINE#         274
  C:539AH         LINE#         275
  C:53B6H         LINE#         276
  C:53B9H         LINE#         277
  C:53BCH         LINE#         278
  C:53BCH         LINE#         279
  C:53BCH         LINE#         280
  C:53BFH         LINE#         281
  C:53C1H         LINE#         282
  C:53C1H         LINE#         283
BL51 BANKED LINKER/LOCATER V6.22.2.0                                                  07/08/2024  03:11:28  PAGE 44


  -------         ENDPROC       _SU_SET_BLOCK
  -------         PROC          _SU_CLEAR_BLOCK
  D:0006H         SYMBOL        node
  C:5BDFH         LINE#         286
  C:5BDFH         LINE#         287
  C:5BDFH         LINE#         288
  C:5BE3H         LINE#         289
  C:5BE6H         LINE#         290
  C:5BE9H         LINE#         291
  C:5BE9H         LINE#         292
  C:5BFDH         LINE#         293
  C:5C08H         LINE#         294
  C:5C15H         LINE#         295
  C:5C18H         LINE#         296
  C:5C1BH         LINE#         297
  C:5C1EH         LINE#         298
  C:5C1EH         LINE#         299
  C:5C1EH         LINE#         300
  C:5C21H         LINE#         301
  C:5C23H         LINE#         302
  C:5C23H         LINE#         303
  -------         ENDPROC       _SU_CLEAR_BLOCK
  -------         PROC          _SU_DELAY
  D:0006H         SYMBOL        tick
  C:5B95H         LINE#         306
  C:5B95H         LINE#         307
  C:5B95H         LINE#         308
  C:5BA4H         LINE#         309
  C:5BB2H         LINE#         310
  C:5BC2H         LINE#         311
  C:5BC4H         LINE#         312
  C:5BC6H         LINE#         313
  C:5BCBH         LINE#         314
  C:5BDCH         LINE#         315
  C:5BDCH         LINE#         316
  -------         ENDPROC       _SU_DELAY
  -------         PROC          _SU_TAKE_MUTEX
  X:063BH         SYMBOL        mut
  D:0004H         SYMBOL        tick
  -------         DO            
  C:4127H         SYMBOL        __RET_TRUE1
  C:414DH         SYMBOL        __RET_TRUE2
  C:4093H         SYMBOL        __RET_FALSE
  -------         ENDDO         
  C:4033H         LINE#         326
  C:403BH         LINE#         327
  C:403BH         LINE#         328
  C:4045H         LINE#         329
  C:4062H         LINE#         330
  C:4069H         LINE#         332
  C:4077H         LINE#         333
  C:4085H         LINE#         334
  C:4095H         LINE#         335
  C:40ADH         LINE#         336
  C:40D1H         LINE#         337
  C:40E4H         LINE#         338
  C:40F1H         LINE#         339
BL51 BANKED LINKER/LOCATER V6.22.2.0                                                  07/08/2024  03:11:28  PAGE 45


  C:40F1H         LINE#         340
  C:40F4H         LINE#         341
  C:4101H         LINE#         343
  C:4119H         LINE#         345
  C:4120H         LINE#         347
  C:4120H         LINE#         348
  C:4124H         LINE#         349
  C:4127H         LINE#         351
  C:4127H         LINE#         352
  C:413BH         LINE#         353
  C:414DH         LINE#         355
  C:414DH         LINE#         356
  C:415BH         LINE#         357
  C:415FH         LINE#         358
  C:4161H         LINE#         359
  -------         ENDPROC       _SU_TAKE_MUTEX
  -------         PROC          _SU_BACK_MUTEX
  D:0006H         SYMBOL        mut
  C:5AB2H         LINE#         362
  C:5AB2H         LINE#         363
  C:5AB2H         LINE#         364
  C:5AB9H         LINE#         365
  C:5AC7H         LINE#         366
  C:5ACEH         LINE#         367
  C:5AD1H         LINE#         368
  C:5AE6H         LINE#         369
  C:5AF3H         LINE#         370
  C:5AFAH         LINE#         371
  C:5AFCH         LINE#         372
  C:5AFCH         LINE#         373
  C:5AFCH         LINE#         374
  C:5AFCH         LINE#         375
  -------         ENDPROC       _SU_BACK_MUTEX
  -------         PROC          _SU_WAIT_BINARY
  D:0006H         SYMBOL        bin
  D:0004H         SYMBOL        tick
  -------         DO            
  C:566AH         SYMBOL        __RET_TRUE
  C:566CH         SYMBOL        __RET_FALSE
  -------         ENDDO         
  C:55F9H         LINE#         387
  C:55F9H         LINE#         388
  C:55F9H         LINE#         389
  C:5600H         LINE#         390
  C:5604H         LINE#         392
  C:560CH         LINE#         393
  C:5618H         LINE#         394
  C:5626H         LINE#         395
  C:5626H         LINE#         396
  C:5626H         LINE#         397
  C:5629H         LINE#         398
  C:5636H         LINE#         400
  C:5646H         LINE#         402
  C:564FH         LINE#         403
  C:5656H         LINE#         405
  C:5656H         LINE#         406
  C:565AH         LINE#         407
BL51 BANKED LINKER/LOCATER V6.22.2.0                                                  07/08/2024  03:11:28  PAGE 46


  C:565DH         LINE#         409
  C:565DH         LINE#         410
  C:5661H         LINE#         411
  C:5663H         LINE#         412
  -------         ENDPROC       _SU_WAIT_BINARY
  -------         PROC          _SU_TAKE_BINARY
  D:0006H         SYMBOL        bin
  X:063DH         SYMBOL        tick
  -------         DO            
  C:4B86H         SYMBOL        __RET_TRUE
  C:4B5CH         SYMBOL        __RET_FALSE
  -------         ENDDO         
  C:4ADDH         LINE#         415
  C:4AE5H         LINE#         416
  C:4AE5H         LINE#         417
  C:4AEFH         LINE#         418
  C:4AFCH         LINE#         420
  C:4B24H         LINE#         421
  C:4B30H         LINE#         422
  C:4B30H         LINE#         423
  C:4B3EH         LINE#         424
  C:4B4CH         LINE#         425
  C:4B4FH         LINE#         426
  C:4B4FH         LINE#         427
  C:4B52H         LINE#         428
  C:4B5FH         LINE#         430
  C:4B6FH         LINE#         432
  C:4B78H         LINE#         433
  C:4B7FH         LINE#         435
  C:4B7FH         LINE#         436
  C:4B83H         LINE#         437
  C:4B86H         LINE#         439
  C:4B86H         LINE#         440
  C:4B8CH         LINE#         441
  C:4B90H         LINE#         442
  C:4B92H         LINE#         443
  -------         ENDPROC       _SU_TAKE_BINARY
  -------         PROC          _SU_GIVE_BINARY
  D:0082H         SYMBOL        bin
  C:63E1H         LINE#         446
  C:63E5H         LINE#         447
  C:63E5H         LINE#         448
  C:63E8H         LINE#         449
  C:63F1H         LINE#         450
  -------         ENDPROC       _SU_GIVE_BINARY
  -------         PROC          _SU_TAKE_SEMAPHORE
  D:0006H         SYMBOL        sem
  X:063FH         SYMBOL        tick
  -------         DO            
  C:4A0CH         SYMBOL        __RET_TRUE
  C:49DEH         SYMBOL        __RET_FALSE
  -------         ENDDO         
  C:4950H         LINE#         462
  C:4958H         LINE#         463
  C:4958H         LINE#         464
  C:4966H         LINE#         465
  C:4973H         LINE#         467
BL51 BANKED LINKER/LOCATER V6.22.2.0                                                  07/08/2024  03:11:28  PAGE 47


  C:499FH         LINE#         468
  C:49AFH         LINE#         469
  C:49AFH         LINE#         470
  C:49BDH         LINE#         471
  C:49CBH         LINE#         472
  C:49CEH         LINE#         473
  C:49CEH         LINE#         474
  C:49D1H         LINE#         475
  C:49DEH         LINE#         477
  C:49EEH         LINE#         479
  C:49FAH         LINE#         480
  C:4A05H         LINE#         482
  C:4A05H         LINE#         483
  C:4A09H         LINE#         484
  C:4A0CH         LINE#         486
  C:4A0CH         LINE#         487
  C:4A17H         LINE#         488
  C:4A1BH         LINE#         489
  C:4A1DH         LINE#         490
  -------         ENDPROC       _SU_TAKE_SEMAPHORE
  -------         PROC          _SU_GIVE_SEMAPHORE
  D:0006H         SYMBOL        sem
  C:5EC6H         LINE#         493
  C:5EC6H         LINE#         494
  C:5EC6H         LINE#         495
  C:5EDFH         LINE#         496
  C:5EEAH         LINE#         497
  C:5EEAH         LINE#         498
  C:5EFBH         LINE#         499
  -------         ENDPROC       _SU_GIVE_SEMAPHORE
  -------         PROC          _SU_RECV_TASKMSG
  D:0006H         SYMBOL        flag
  D:0004H         SYMBOL        tick
  -------         DO            
  C:58B0H         SYMBOL        __RET_TRUE
  C:58F9H         SYMBOL        __RET_FALSE
  -------         ENDDO         
  C:585BH         LINE#         511
  C:585BH         LINE#         512
  C:585BH         LINE#         513
  C:5862H         LINE#         514
  C:5866H         LINE#         516
  C:5874H         LINE#         517
  C:5882H         LINE#         518
  C:5882H         LINE#         519
  C:5882H         LINE#         520
  C:5885H         LINE#         521
  C:5892H         LINE#         523
  C:58A2H         LINE#         525
  C:58A9H         LINE#         527
  C:58A9H         LINE#         528
  C:58ADH         LINE#         529
  C:58B0H         LINE#         531
  C:58B0H         LINE#         532
  C:58B6H         LINE#         533
  C:58B8H         LINE#         534
  -------         ENDPROC       _SU_RECV_TASKMSG
BL51 BANKED LINKER/LOCATER V6.22.2.0                                                  07/08/2024  03:11:28  PAGE 48


  -------         PROC          __RECV_FETION_
  D:0082H         SYMBOL        fet
  -------         DO            
  D:0007H         SYMBOL        fetion
  -------         ENDDO         
  C:64A9H         LINE#         545
  C:64ADH         LINE#         546
  C:64ADH         LINE#         547
  C:64AFH         LINE#         548
  C:64B1H         LINE#         549
  C:64B5H         LINE#         550
  C:64B5H         LINE#         551
  -------         ENDPROC       __RECV_FETION_
  -------         PROC          _SU_RECV_FETION
  D:0006H         SYMBOL        fet
  D:0004H         SYMBOL        tick
  -------         DO            
  C:5851H         SYMBOL        __RET_TION
  C:58A6H         SYMBOL        __RET_FALSE
  -------         ENDDO         
  C:57FBH         LINE#         553
  C:57FBH         LINE#         554
  C:57FBH         LINE#         555
  C:5802H         LINE#         556
  C:5806H         LINE#         558
  C:580EH         LINE#         559
  C:581AH         LINE#         560
  C:5828H         LINE#         561
  C:5828H         LINE#         562
  C:5828H         LINE#         563
  C:582BH         LINE#         564
  C:5838H         LINE#         566
  C:5848H         LINE#         568
  C:5851H         LINE#         570
  C:5851H         LINE#         571
  C:5854H         LINE#         573
  C:5854H         LINE#         574
  C:5858H         LINE#         575
  C:585AH         LINE#         576
  -------         ENDPROC       _SU_RECV_FETION
  -------         PROC          __RET_VPTR_
  D:0001H         SYMBOL        p
  C:6518H         LINE#         584
  C:6518H         LINE#         585
  C:6518H         LINE#         586
  C:651CH         LINE#         587
  C:651CH         LINE#         588
  -------         ENDPROC       __RET_VPTR_
  -------         PROC          _SU_RECV_MAIL
  X:0641H         SYMBOL        mbox
  D:0004H         SYMBOL        tick
  -------         DO            
  C:4C1DH         SYMBOL        __RET_MAIL
  C:4C4AH         SYMBOL        __RET_NULL
  -------         ENDDO         
  C:4B93H         LINE#         598
  C:4B9BH         LINE#         599
BL51 BANKED LINKER/LOCATER V6.22.2.0                                                  07/08/2024  03:11:28  PAGE 49


  C:4B9BH         LINE#         600
  C:4BA2H         LINE#         601
  C:4BA6H         LINE#         603
  C:4BBDH         LINE#         604
  C:4BC9H         LINE#         605
  C:4BD7H         LINE#         606
  C:4BD7H         LINE#         607
  C:4BD7H         LINE#         608
  C:4BDAH         LINE#         609
  C:4BE7H         LINE#         611
  C:4BFFH         LINE#         613
  C:4C0BH         LINE#         614
  C:4C12H         LINE#         616
  C:4C12H         LINE#         617
  C:4C16H         LINE#         618
  C:4C1DH         LINE#         620
  C:4C1DH         LINE#         621
  C:4C2BH         LINE#         622
  C:4C3BH         LINE#         623
  -------         ENDPROC       _SU_RECV_MAIL
  -------         PROC          _SU_SEND_MAIL
  D:0006H         SYMBOL        mbox
  D:0001H         SYMBOL        mail
  C:61E0H         LINE#         626
  C:61E0H         LINE#         627
  C:61E0H         LINE#         628
  C:61E6H         LINE#         629
  C:61EFH         LINE#         630
  C:61F6H         LINE#         631
  C:6209H         LINE#         632
  -------         ENDPROC       _SU_SEND_MAIL
  -------         PROC          _SU_RECV_MSG
  X:05E1H         SYMBOL        queue
  D:0004H         SYMBOL        tick
  -------         DO            
  X:05E3H         SYMBOL        msg
  X:05E6H         SYMBOL        node
  C:23FCH         SYMBOL        __RECV_MSG
  C:26D3H         SYMBOL        __RET_NULL
  -------         ENDDO         
  C:2331H         LINE#         644
  C:2339H         LINE#         645
  C:2339H         LINE#         648
  C:2343H         LINE#         650
  C:2351H         LINE#         651
  C:2358H         LINE#         653
  C:236BH         LINE#         654
  C:237BH         LINE#         655
  C:2387H         LINE#         656
  C:2395H         LINE#         657
  C:23A7H         LINE#         658
  C:23AFH         LINE#         659
  C:23B2H         LINE#         660
  C:23BFH         LINE#         662
  C:23D7H         LINE#         664
  C:23E3H         LINE#         665
  C:23EEH         LINE#         666
BL51 BANKED LINKER/LOCATER V6.22.2.0                                                  07/08/2024  03:11:28  PAGE 50


  C:23FCH         LINE#         668
  C:23FCH         LINE#         669
  C:2412H         LINE#         670
  C:253EH         LINE#         672
  C:26B3H         LINE#         673
  C:26C5H         LINE#         674
  C:26D3H         LINE#         676
  C:26D3H         LINE#         677
  C:26E5H         LINE#         678
  C:26E9H         LINE#         679
  C:26EFH         LINE#         680
  -------         ENDPROC       _SU_RECV_MSG
  -------         PROC          _SU_SEND_MSG
  X:05E8H         SYMBOL        queue
  X:05EAH         SYMBOL        msg
  -------         DO            
  X:05EDH         SYMBOL        node
  -------         ENDDO         
  C:37DCH         LINE#         683
  C:37EFH         LINE#         684
  C:37EFH         LINE#         685
  C:37F9H         LINE#         687
  C:381EH         LINE#         689
  C:3825H         LINE#         691
  C:382CH         LINE#         692
  C:382FH         LINE#         693
  C:3831H         LINE#         694
  C:3831H         LINE#         695
  C:3846H         LINE#         696
  C:384CH         LINE#         697
  C:385AH         LINE#         698
  C:385DH         LINE#         700
  C:3864H         LINE#         702
  C:3864H         LINE#         703
  C:3867H         LINE#         704
  C:386AH         LINE#         705
  C:386AH         LINE#         706
  C:3922H         LINE#         707
  C:3925H         LINE#         709
  C:39DEH         LINE#         711
  C:39F5H         LINE#         712
  C:39F5H         LINE#         713
  C:39F8H         LINE#         714
  C:39FAH         LINE#         715
  -------         ENDPROC       _SU_SEND_MSG
  -------         PROC          _SU_QUERY_GROUP
  D:0006H         SYMBOL        p
  D:0005H         SYMBOL        size
  -------         DO            
  C:5C62H         SYMBOL        __RET_TRUE
  -------         ENDDO         
  C:5C24H         LINE#         726
  C:5C24H         LINE#         727
  C:5C24H         LINE#         728
  C:5C31H         LINE#         729
  C:5C3AH         LINE#         730
  C:5C47H         LINE#         731
BL51 BANKED LINKER/LOCATER V6.22.2.0                                                  07/08/2024  03:11:28  PAGE 51


  C:5C5CH         LINE#         732
  C:5C5CH         LINE#         733
  C:5C5FH         LINE#         734
  C:5C62H         LINE#         736
  C:5C62H         LINE#         737
  C:5C65H         LINE#         738
  C:5C67H         LINE#         739
  -------         ENDPROC       _SU_QUERY_GROUP
  -------         PROC          _SU_WAIT_GROUP
  X:0643H         SYMBOL        p
  D:0001H         SYMBOL        size
  D:0002H         SYMBOL        tick
  -------         DO            
  C:4258H         SYMBOL        __RET_TRUE
  C:425EH         SYMBOL        __RET_FALSE
  -------         ENDDO         
  C:4162H         LINE#         742
  C:416CH         LINE#         743
  C:416CH         LINE#         744
  C:4179H         LINE#         745
  C:418AH         LINE#         746
  C:419FH         LINE#         747
  C:41BEH         LINE#         748
  C:41BEH         LINE#         749
  C:41C5H         LINE#         751
  C:41D3H         LINE#         752
  C:41E4H         LINE#         753
  C:41F6H         LINE#         754
  C:41FEH         LINE#         755
  C:4201H         LINE#         757
  C:4210H         LINE#         759
  C:421DH         LINE#         761
  C:4234H         LINE#         763
  C:4243H         LINE#         764
  C:4253H         LINE#         765
  C:4267H         LINE#         766
  C:4283H         LINE#         767
  C:4283H         LINE#         768
  C:4283H         LINE#         769
  C:4287H         LINE#         770
  C:428AH         LINE#         772
  C:428AH         LINE#         773
  C:428EH         LINE#         774
  C:4290H         LINE#         775
  -------         ENDPROC       _SU_WAIT_GROUP
  -------         PROC          _SU_XALLOC
  D:0006H         SYMBOL        p
  C:6524H         LINE#         786
  C:6524H         LINE#         787
  C:6524H         LINE#         788
  -------         ENDPROC       _SU_XALLOC
  -------         PROC          _SU_INIT_MEMPOOL
  X:061FH         SYMBOL        p
  X:0621H         SYMBOL        size
  C:58B9H         LINE#         793
  C:58C9H         LINE#         794
  C:58C9H         LINE#         795
BL51 BANKED LINKER/LOCATER V6.22.2.0                                                  07/08/2024  03:11:28  PAGE 52


  C:58E8H         LINE#         796
  C:58F3H         LINE#         797
  C:58F6H         LINE#         798
  C:58F8H         LINE#         799
  C:58F8H         LINE#         800
  C:58F8H         LINE#         801
  C:590EH         LINE#         802
  C:5911H         LINE#         803
  C:5913H         LINE#         804
  C:5913H         LINE#         805
  -------         ENDPROC       _SU_INIT_MEMPOOL
  -------         PROC          _SU_TALLOC
  D:0006H         SYMBOL        p
  X:0623H         SYMBOL        size
  -------         DO            
  X:0625H         SYMBOL        r
  -------         ENDDO         
  C:53C2H         LINE#         808
  C:53CAH         LINE#         809
  C:53CAH         LINE#         810
  C:5405H         LINE#         811
  C:5409H         LINE#         812
  C:5409H         LINE#         813
  C:5409H         LINE#         814
  C:541BH         LINE#         815
  C:542FH         LINE#         816
  C:5437H         LINE#         817
  C:5437H         LINE#         818
  -------         ENDPROC       _SU_TALLOC
  -------         ENDMOD        SV_TASK

  -------         MODULE        SV_TICK
  C:0000H         SYMBOL        _ICE_DUMMY_
  D:0080H         PUBLIC        P0
  C:6386H         PUBLIC        _st_recv_mail
  D:0090H         PUBLIC        P1
  D:00A0H         PUBLIC        P2
  D:00B0H         PUBLIC        P3
  D:00C0H         PUBLIC        P4
  C:5CEAH         PUBLIC        _st_set_block
  D:00C8H         PUBLIC        P5
  D:00E8H         PUBLIC        P6
  D:00F8H         PUBLIC        P7
  D:00A8H         PUBLIC        IE
  D:00B8H         PUBLIC        IP
  C:6350H         PUBLIC        _st_take_semaphore
  C:35B4H         PUBLIC        _st_send_msg
  C:6283H         PUBLIC        _st_give_semaphore
  C:2DE7H         PUBLIC        _st_recv_msg
  D:0098H         PUBLIC        SCON
  D:0088H         PUBLIC        TCON
  C:5F36H         PUBLIC        _st_clear_block
  C:5EFEH         PUBLIC        _st_delete_task
  C:648CH         PUBLIC        _st_take_binary
  C:64DCH         PUBLIC        _st_recv_fetion
  C:5914H         PUBLIC        _st_suspend_task
  C:596BH         PUBLIC        _st_resume_task
BL51 BANKED LINKER/LOCATER V6.22.2.0                                                  07/08/2024  03:11:28  PAGE 53


  C:551CH         PUBLIC        _st_set_taskpri
  C:63A0H         PUBLIC        _st_send_mail
  D:00D0H         PUBLIC        PSW
  -------         PROC          _ST_SUSPEND_TASK
  D:0006H         SYMBOL        node
  C:5914H         LINE#         20
  C:5914H         LINE#         21
  C:5914H         LINE#         22
  C:5918H         LINE#         23
  C:591BH         LINE#         24
  C:591BH         LINE#         25
  C:592FH         LINE#         26
  C:593CH         LINE#         27
  C:593FH         LINE#         28
  C:593FH         LINE#         29
  C:594DH         LINE#         30
  C:5950H         LINE#         31
  C:5950H         LINE#         32
  C:5954H         LINE#         33
  C:5957H         LINE#         34
  C:5957H         LINE#         35
  C:5965H         LINE#         36
  C:5968H         LINE#         37
  C:5968H         LINE#         38
  C:5968H         LINE#         39
  C:596AH         LINE#         40
  C:596AH         LINE#         41
  -------         ENDPROC       _ST_SUSPEND_TASK
  -------         PROC          _ST_RESUME_TASK
  D:0006H         SYMBOL        node
  C:596BH         LINE#         44
  C:596BH         LINE#         45
  C:596BH         LINE#         46
  C:596FH         LINE#         47
  C:5972H         LINE#         48
  C:5972H         LINE#         49
  C:5980H         LINE#         50
  C:598DH         LINE#         51
  C:5990H         LINE#         52
  C:5990H         LINE#         53
  C:59A4H         LINE#         54
  C:59A7H         LINE#         55
  C:59A7H         LINE#         56
  C:59ABH         LINE#         57
  C:59AEH         LINE#         58
  C:59AEH         LINE#         59
  C:59BCH         LINE#         60
  C:59BFH         LINE#         61
  C:59BFH         LINE#         62
  C:59BFH         LINE#         63
  C:59C1H         LINE#         64
  C:59C1H         LINE#         65
  -------         ENDPROC       _ST_RESUME_TASK
  -------         PROC          _ST_DELETE_TASK
  D:0006H         SYMBOL        node
  C:5EFEH         LINE#         68
  C:5EFEH         LINE#         69
BL51 BANKED LINKER/LOCATER V6.22.2.0                                                  07/08/2024  03:11:28  PAGE 54


  C:5EFEH         LINE#         70
  C:5F02H         LINE#         71
  C:5F05H         LINE#         72
  C:5F05H         LINE#         73
  C:5F1BH         LINE#         74
  C:5F27H         LINE#         75
  C:5F2AH         LINE#         76
  C:5F2AH         LINE#         77
  C:5F30H         LINE#         78
  C:5F33H         LINE#         79
  C:5F33H         LINE#         80
  C:5F33H         LINE#         81
  C:5F35H         LINE#         82
  C:5F35H         LINE#         83
  -------         ENDPROC       _ST_DELETE_TASK
  -------         PROC          _ST_SET_TASKPRI
  X:0645H         SYMBOL        node
  D:0005H         SYMBOL        pri
  C:551CH         LINE#         86
  C:5524H         LINE#         87
  C:5524H         LINE#         88
  C:5527H         LINE#         89
  C:552AH         LINE#         90
  C:552AH         LINE#         91
  C:5544H         LINE#         92
  C:5551H         LINE#         93
  C:5560H         LINE#         94
  C:5563H         LINE#         95
  C:5566H         LINE#         96
  C:5566H         LINE#         97
  C:5566H         LINE#         98
  C:5569H         LINE#         99
  C:5569H         LINE#         100
  C:5569H         LINE#         101
  C:557DH         LINE#         102
  C:5580H         LINE#         103
  C:5580H         LINE#         104
  C:5585H         LINE#         105
  C:5588H         LINE#         106
  C:5588H         LINE#         107
  C:5588H         LINE#         108
  C:558AH         LINE#         109
  C:558AH         LINE#         110
  -------         ENDPROC       _ST_SET_TASKPRI
  -------         PROC          _ST_SET_BLOCK
  D:0006H         SYMBOL        node
  D:0004H         SYMBOL        tick
  C:5CEAH         LINE#         113
  C:5CEAH         LINE#         114
  C:5CEAH         LINE#         115
  C:5CEEH         LINE#         116
  C:5CF1H         LINE#         117
  C:5CF1H         LINE#         118
  C:5D05H         LINE#         119
  C:5D09H         LINE#         120
  C:5D14H         LINE#         121
  C:5D14H         LINE#         122
BL51 BANKED LINKER/LOCATER V6.22.2.0                                                  07/08/2024  03:11:28  PAGE 55


  C:5D22H         LINE#         123
  C:5D25H         LINE#         124
  C:5D25H         LINE#         125
  C:5D27H         LINE#         126
  -------         ENDPROC       _ST_SET_BLOCK
  -------         PROC          _ST_CLEAR_BLOCK
  D:0006H         SYMBOL        node
  C:5F36H         LINE#         129
  C:5F36H         LINE#         130
  C:5F36H         LINE#         131
  C:5F3AH         LINE#         132
  C:5F3DH         LINE#         133
  C:5F3DH         LINE#         134
  C:5F51H         LINE#         135
  C:5F5CH         LINE#         136
  C:5F69H         LINE#         137
  C:5F6BH         LINE#         138
  C:5F6BH         LINE#         139
  C:5F6DH         LINE#         140
  -------         ENDPROC       _ST_CLEAR_BLOCK
  -------         PROC          _ST_TAKE_BINARY
  D:0082H         SYMBOL        bin
  C:648CH         LINE#         149
  C:6490H         LINE#         150
  C:6490H         LINE#         151
  C:6493H         LINE#         152
  C:6495H         LINE#         153
  C:6498H         LINE#         154
  C:6498H         LINE#         155
  C:649AH         LINE#         156
  -------         ENDPROC       _ST_TAKE_BINARY
  -------         PROC          _ST_TAKE_SEMAPHORE
  D:0006H         SYMBOL        sem
  C:6350H         LINE#         167
  C:6350H         LINE#         168
  C:6350H         LINE#         169
  C:635BH         LINE#         170
  C:6366H         LINE#         171
  C:6369H         LINE#         172
  C:6369H         LINE#         173
  C:636BH         LINE#         174
  -------         ENDPROC       _ST_TAKE_SEMAPHORE
  -------         PROC          _ST_GIVE_SEMAPHORE
  D:0006H         SYMBOL        sem
  C:6283H         LINE#         177
  C:6283H         LINE#         178
  C:6283H         LINE#         179
  C:629CH         LINE#         180
  C:62A7H         LINE#         181
  C:62A7H         LINE#         182
  -------         ENDPROC       _ST_GIVE_SEMAPHORE
  -------         PROC          _ST_RECV_FETION
  D:0082H         SYMBOL        fet
  -------         DO            
  D:0007H         SYMBOL        fetion
  -------         ENDDO         
  C:64DCH         LINE#         193
BL51 BANKED LINKER/LOCATER V6.22.2.0                                                  07/08/2024  03:11:28  PAGE 56


  C:64E0H         LINE#         194
  C:64E0H         LINE#         195
  C:64E2H         LINE#         196
  C:64E4H         LINE#         197
  C:64E4H         LINE#         198
  -------         ENDPROC       _ST_RECV_FETION
  -------         PROC          _ST_RECV_MAIL
  D:0082H         SYMBOL        mbox
  C:6386H         LINE#         209
  C:638AH         LINE#         210
  C:638AH         LINE#         211
  C:638DH         LINE#         212
  C:638FH         LINE#         213
  C:6399H         LINE#         214
  C:6399H         LINE#         215
  C:639FH         LINE#         216
  -------         ENDPROC       _ST_RECV_MAIL
  -------         PROC          _ST_SEND_MAIL
  D:0006H         SYMBOL        mbox
  D:0001H         SYMBOL        mail
  C:63A0H         LINE#         219
  C:63A0H         LINE#         220
  C:63A0H         LINE#         221
  C:63A6H         LINE#         222
  C:63AFH         LINE#         223
  C:63B6H         LINE#         224
  -------         ENDPROC       _ST_SEND_MAIL
  -------         PROC          _ST_RECV_MSG
  X:05EFH         SYMBOL        queue
  -------         DO            
  X:05F1H         SYMBOL        msg
  X:05F4H         SYMBOL        node
  -------         ENDDO         
  C:2DE7H         LINE#         235
  C:2DEFH         LINE#         236
  C:2DEFH         LINE#         237
  C:2DF6H         LINE#         239
  C:2E01H         LINE#         241
  C:2E0FH         LINE#         242
  C:2E25H         LINE#         243
  C:2F51H         LINE#         245
  C:30C6H         LINE#         247
  C:30D8H         LINE#         248
  C:30E3H         LINE#         249
  -------         ENDPROC       _ST_RECV_MSG
  -------         PROC          _ST_SEND_MSG
  X:05F6H         SYMBOL        queue
  X:05F8H         SYMBOL        msg
  -------         DO            
  X:05FBH         SYMBOL        node
  -------         ENDDO         
  C:35B4H         LINE#         252
  C:35C7H         LINE#         253
  C:35C7H         LINE#         254
  C:35D1H         LINE#         256
  C:35F6H         LINE#         258
  C:35FDH         LINE#         260
BL51 BANKED LINKER/LOCATER V6.22.2.0                                                  07/08/2024  03:11:28  PAGE 57


  C:3609H         LINE#         261
  C:360BH         LINE#         262
  C:360BH         LINE#         263
  C:3620H         LINE#         264
  C:3626H         LINE#         265
  C:3634H         LINE#         266
  C:3637H         LINE#         268
  C:363EH         LINE#         270
  C:3650H         LINE#         271
  C:3653H         LINE#         272
  C:3653H         LINE#         273
  C:370BH         LINE#         274
  C:370EH         LINE#         276
  C:37C7H         LINE#         278
  C:37D9H         LINE#         279
  C:37DBH         LINE#         280
  -------         ENDPROC       _ST_SEND_MSG
  -------         ENDMOD        SV_TICK

  -------         MODULE        GVAR_HOOK
  C:0000H         SYMBOL        _ICE_DUMMY_
  D:0080H         PUBLIC        P0
  D:0090H         PUBLIC        P1
  D:00A0H         PUBLIC        P2
  D:00B0H         PUBLIC        P3
  D:00C0H         PUBLIC        P4
  D:00C8H         PUBLIC        P5
  D:00E8H         PUBLIC        P6
  D:00F8H         PUBLIC        P7
  D:00A8H         PUBLIC        IE
  D:00B8H         PUBLIC        IP
  D:0098H         PUBLIC        SCON
  D:0088H         PUBLIC        TCON
  D:00D0H         PUBLIC        PSW
  -------         ENDMOD        GVAR_HOOK

  -------         MODULE        IDLE_HOOK
  C:0000H         SYMBOL        _ICE_DUMMY_
  D:0080H         PUBLIC        P0
  D:0090H         PUBLIC        P1
  D:00A0H         PUBLIC        P2
  D:00B0H         PUBLIC        P3
  D:00C0H         PUBLIC        P4
  D:00C8H         PUBLIC        P5
  D:00E8H         PUBLIC        P6
  D:00F8H         PUBLIC        P7
  D:00A8H         PUBLIC        IE
  D:00B8H         PUBLIC        IP
  D:0098H         PUBLIC        SCON
  D:0088H         PUBLIC        TCON
  D:00D0H         PUBLIC        PSW
  -------         ENDMOD        IDLE_HOOK

  -------         MODULE        INIT_HOOK
  C:0000H         SYMBOL        _ICE_DUMMY_
  D:0093H         PUBLIC        P0M1
  D:0092H         PUBLIC        P1M0
BL51 BANKED LINKER/LOCATER V6.22.2.0                                                  07/08/2024  03:11:28  PAGE 58


  D:0096H         PUBLIC        P2M0
  D:0091H         PUBLIC        P1M1
  D:0080H         PUBLIC        P0
  D:00B2H         PUBLIC        P3M0
  D:0095H         PUBLIC        P2M1
  D:0090H         PUBLIC        P1
  D:00B4H         PUBLIC        P4M0
  D:00B1H         PUBLIC        P3M1
  D:00A0H         PUBLIC        P2
  D:00CAH         PUBLIC        P5M0
  D:00B3H         PUBLIC        P4M1
  D:00B0H         PUBLIC        P3
  D:00CCH         PUBLIC        P6M0
  D:00C9H         PUBLIC        P5M1
  D:00C0H         PUBLIC        P4
  D:00E2H         PUBLIC        P7M0
  D:00CBH         PUBLIC        P6M1
  D:00C8H         PUBLIC        P5
  D:00E8H         PUBLIC        P6
  D:00E1H         PUBLIC        P7M1
  D:00F8H         PUBLIC        P7
  D:00A2H         PUBLIC        P_SW1
  D:00BAH         PUBLIC        P_SW2
  D:00A8H         PUBLIC        IE
  D:00B6H         PUBLIC        IP2H
  D:00B8H         PUBLIC        IP
  B:0098H.1       PUBLIC        TI
  D:0098H         PUBLIC        SCON
  D:0089H         PUBLIC        TMOD
  D:0088H         PUBLIC        TCON
  D:00AFH         PUBLIC        IE2
  D:008EH         PUBLIC        AUXR
  C:59C2H         PUBLIC        init_hook
  D:00B5H         PUBLIC        IP2
  D:00D6H         PUBLIC        T2H
  D:00D7H         PUBLIC        T2L
  B:00B8H.0       PUBLIC        PX0
  D:00B7H         PUBLIC        IPH
  D:009AH         PUBLIC        S2CON
  D:00D0H         PUBLIC        PSW
  D:0094H         PUBLIC        P0M0
  -------         PROC          INIT_HOOK
  C:59C2H         LINE#         13
  C:59C2H         LINE#         14
  C:59C2H         LINE#         17
  C:59C7H         LINE#         18
  C:59CBH         LINE#         19
  C:59CFH         LINE#         20
  C:59D3H         LINE#         21
  C:59D7H         LINE#         22
  C:59DBH         LINE#         23
  C:59DFH         LINE#         24
  C:59E3H         LINE#         26
  C:59E5H         LINE#         27
  C:59E8H         LINE#         29
  C:59EAH         LINE#         30
  C:59EDH         LINE#         31
BL51 BANKED LINKER/LOCATER V6.22.2.0                                                  07/08/2024  03:11:28  PAGE 59


  C:59F0H         LINE#         32
  C:59F3H         LINE#         33
  C:59F6H         LINE#         34
  C:59F8H         LINE#         36
  C:59FBH         LINE#         37
  C:59FEH         LINE#         38
  C:5A01H         LINE#         40
  C:5A04H         LINE#         41
  C:5A07H         LINE#         43
  C:5A0AH         LINE#         44
  C:5A0CH         LINE#         47
  C:5A0FH         LINE#         48
  C:5A12H         LINE#         50
  -------         ENDPROC       INIT_HOOK
  -------         ENDMOD        INIT_HOOK

  -------         MODULE        PENDSV_HOOK
  C:0000H         SYMBOL        _ICE_DUMMY_
  D:0080H         PUBLIC        P0
  D:0090H         PUBLIC        P1
  D:00A0H         PUBLIC        P2
  D:00B0H         PUBLIC        P3
  D:00C0H         PUBLIC        P4
  D:00C8H         PUBLIC        P5
  D:00E8H         PUBLIC        P6
  D:00F8H         PUBLIC        P7
  D:00A8H         PUBLIC        IE
  D:00B8H         PUBLIC        IP
  C:643CH         PUBLIC        pendsv_hook
  D:0098H         PUBLIC        SCON
  D:0088H         PUBLIC        TCON
  D:00D0H         PUBLIC        PSW
  -------         PROC          PENDSV_HOOK
  C:643CH         LINE#         18
  C:643CH         LINE#         19
  C:643CH         LINE#         21
  C:643FH         LINE#         22
  C:6441H         LINE#         23
  C:644CH         LINE#         24
  C:644CH         LINE#         41
  -------         ENDPROC       PENDSV_HOOK
  -------         ENDMOD        PENDSV_HOOK

  -------         MODULE        START_HOOK
  C:0000H         SYMBOL        _ICE_DUMMY_
  D:0080H         PUBLIC        P0
  D:0090H         PUBLIC        P1
  D:00A0H         PUBLIC        P2
  D:00B0H         PUBLIC        P3
  D:00C0H         PUBLIC        P4
  D:00C8H         PUBLIC        P5
  D:00E8H         PUBLIC        P6
  D:00F8H         PUBLIC        P7
  D:00A8H         PUBLIC        IE
  D:00B8H         PUBLIC        IP
  D:0098H         PUBLIC        SCON
  D:0088H         PUBLIC        TCON
BL51 BANKED LINKER/LOCATER V6.22.2.0                                                  07/08/2024  03:11:28  PAGE 60


  D:00D0H         PUBLIC        PSW
  -------         ENDMOD        START_HOOK

  -------         MODULE        TICK_HOOK
  C:0000H         SYMBOL        _ICE_DUMMY_
  D:0080H         PUBLIC        P0
  D:0090H         PUBLIC        P1
  D:00A0H         PUBLIC        P2
  D:00B0H         PUBLIC        P3
  D:00C0H         PUBLIC        P4
  D:00C8H         PUBLIC        P5
  D:00E8H         PUBLIC        P6
  D:00F8H         PUBLIC        P7
  D:00A8H         PUBLIC        IE
  D:00B8H         PUBLIC        IP
  D:0098H         PUBLIC        SCON
  D:0088H         PUBLIC        TCON
  C:009AH         PUBLIC        tick_hook
  D:00D0H         PUBLIC        PSW
  -------         PROC          TICK_HOOK
  C:009AH         LINE#         27
  C:009AH         LINE#         28
  C:009AH         LINE#         29
  C:009AH         LINE#         40
  C:009AH         LINE#         79
  -------         ENDPROC       TICK_HOOK
  -------         ENDMOD        TICK_HOOK

  -------         MODULE        PORT_8051
  C:0000H         SYMBOL        _ICE_DUMMY_
  D:0080H         PUBLIC        P0
  D:0090H         PUBLIC        P1
  D:00A0H         PUBLIC        P2
  D:00B0H         PUBLIC        P3
  D:00C0H         PUBLIC        P4
  D:00C8H         PUBLIC        P5
  D:00E8H         PUBLIC        P6
  B:00A8H.7       PUBLIC        EA
  D:00F8H         PUBLIC        P7
  B:0020H.0       PUBLIC        m_sign_fifo
  C:64FDH         PUBLIC        mx_resume_irq
  D:00A8H         PUBLIC        IE
  D:00B8H         PUBLIC        IP
  D:003FH         PUBLIC        m_bsp_add
  B:0020H.1       PUBLIC        m_sign_fifo_0_0
  B:0020H.2       PUBLIC        m_sign_fifo_0_1
  B:0020H.3       PUBLIC        m_sign_fifo_1_0
  B:0020H.4       PUBLIC        m_sign_fifo_0_2
  B:0020H.5       PUBLIC        m_sign_fifo_1_1
  B:0020H.6       PUBLIC        m_sign_fifo_0_3
  B:0020H.7       PUBLIC        m_sign_fifo_1_2
  B:0021H.0       PUBLIC        m_sign_fifo_0_4
  B:0021H.1       PUBLIC        m_sign_fifo_1_3
  B:0021H.2       PUBLIC        m_sign_fifo_0_5
  B:0021H.3       PUBLIC        m_sign_fifo_1_4
  B:0021H.4       PUBLIC        m_sign_fifo_0_6
  B:0021H.5       PUBLIC        m_sign_fifo_1_5
BL51 BANKED LINKER/LOCATER V6.22.2.0                                                  07/08/2024  03:11:28  PAGE 61


  B:0021H.6       PUBLIC        m_sign_fifo_0_7
  B:0021H.7       PUBLIC        m_sign_fifo_1_6
  B:0022H.0       PUBLIC        m_sign_fifo_0_8
  B:0022H.1       PUBLIC        m_sign_fifo_1_7
  B:0022H.2       PUBLIC        m_sign_fifo_0_9
  B:0022H.3       PUBLIC        m_sign_fifo_1_8
  B:0022H.4       PUBLIC        m_sign_fifo_1_9
  D:0098H         PUBLIC        SCON
  D:0088H         PUBLIC        TCON
  X:0000H         SYMBOL        mPendSV_FIFO_0
  D:0040H         SYMBOL        m_glocri_counter
  X:0100H         SYMBOL        mPendSV_FIFO_1
  C:642AH         PUBLIC        mx_disable_irq
  B:0022H.5       PUBLIC        m_sign_fifo_0_10
  B:0022H.6       PUBLIC        m_sign_fifo_0_11
  B:0022H.7       PUBLIC        m_sign_fifo_1_10
  B:0023H.0       PUBLIC        m_sign_fifo_0_12
  B:0023H.1       PUBLIC        m_sign_fifo_1_11
  B:0023H.2       PUBLIC        m_sign_fifo_0_13
  B:0023H.3       PUBLIC        m_sign_fifo_1_12
  B:0023H.4       SYMBOL        m_oldirq
  B:0023H.5       PUBLIC        m_sign_fifo_0_14
  B:0023H.6       PUBLIC        m_sign_fifo_1_13
  B:0023H.7       PUBLIC        m_sign_fifo_0_15
  B:0024H.0       PUBLIC        m_sign_fifo_1_14
  B:0024H.1       PUBLIC        m_sign_fifo_1_15
  X:064AH         PUBLIC        mPendSV_FIFO_DepthMAX
  C:30E4H         PUBLIC        mPendSV_FIFOHandler
  C:60CFH         SYMBOL        __fifo_0_
  C:60FEH         SYMBOL        __fifo_1_
  D:00D0H         PUBLIC        PSW
  -------         PROC          MX_DISABLE_IRQ
  C:642AH         LINE#         24
  C:642AH         LINE#         25
  C:642AH         LINE#         26
  C:642FH         LINE#         27
  C:6431H         LINE#         28
  C:6433H         LINE#         29
  C:6437H         LINE#         30
  C:6439H         LINE#         31
  C:6439H         LINE#         32
  C:643BH         LINE#         33
  -------         ENDPROC       MX_DISABLE_IRQ
  -------         PROC          MX_RESUME_IRQ
  C:64FDH         LINE#         35
  C:64FDH         LINE#         36
  C:64FDH         LINE#         37
  C:6500H         LINE#         38
  C:6500H         LINE#         39
  C:6504H         LINE#         40
  C:6504H         LINE#         41
  -------         ENDPROC       MX_RESUME_IRQ
  -------         PROC          __FIFO_0_
  D:0007H         SYMBOL        i
  -------         DO            
  D:0082H         SYMBOL        sv
  -------         ENDDO         
BL51 BANKED LINKER/LOCATER V6.22.2.0                                                  07/08/2024  03:11:28  PAGE 62


  C:60CFH         LINE#         113
  C:60CFH         LINE#         114
  C:60CFH         LINE#         115
  C:60E3H         LINE#         116
  -------         ENDPROC       __FIFO_0_
  -------         PROC          __FIFO_1_
  D:0007H         SYMBOL        i
  -------         DO            
  D:0082H         SYMBOL        sv
  -------         ENDDO         
  C:60FEH         LINE#         119
  C:60FEH         LINE#         120
  C:60FEH         LINE#         121
  C:6112H         LINE#         122
  -------         ENDPROC       __FIFO_1_
  -------         PROC          MPENDSV_FIFOHANDLER
  -------         DO            
  X:0649H         SYMBOL        i
  C:30E4H         SYMBOL        __LABLE
  C:3209H         SYMBOL        __LABLE_0
  C:3347H         SYMBOL        __LABLE_1
  -------         ENDDO         
  C:30E4H         LINE#         125
  C:30E4H         LINE#         126
  C:30E4H         LINE#         130
  C:30E4H         LINE#         131
  C:30E6H         LINE#         133
  C:30E8H         LINE#         134
  C:30EDH         LINE#         148
  C:3100H         LINE#         149
  C:3113H         LINE#         150
  C:3126H         LINE#         151
  C:3139H         LINE#         152
  C:314CH         LINE#         153
  C:315FH         LINE#         154
  C:3172H         LINE#         156
  C:3185H         LINE#         157
  C:3197H         LINE#         158
  C:31A9H         LINE#         159
  C:31BBH         LINE#         160
  C:31CDH         LINE#         161
  C:31DFH         LINE#         162
  C:31F1H         LINE#         163
  C:3203H         LINE#         199
  C:3209H         LINE#         201
  C:3209H         LINE#         202
  C:320BH         LINE#         204
  C:321EH         LINE#         207
  C:3224H         LINE#         209
  C:3226H         LINE#         210
  C:322BH         LINE#         224
  C:323EH         LINE#         225
  C:3251H         LINE#         226
  C:3264H         LINE#         227
  C:3277H         LINE#         228
  C:328AH         LINE#         229
  C:329DH         LINE#         230
BL51 BANKED LINKER/LOCATER V6.22.2.0                                                  07/08/2024  03:11:28  PAGE 63


  C:32B0H         LINE#         232
  C:32C3H         LINE#         233
  C:32D5H         LINE#         234
  C:32E7H         LINE#         235
  C:32F9H         LINE#         236
  C:330BH         LINE#         237
  C:331DH         LINE#         238
  C:332FH         LINE#         239
  C:3341H         LINE#         275
  C:3347H         LINE#         277
  C:3347H         LINE#         279
  C:335AH         LINE#         282
  C:3360H         LINE#         283
  -------         ENDPROC       MPENDSV_FIFOHANDLER
  -------         ENDMOD        PORT_8051

  -------         MODULE        PORT_8051S
  C:4C3CH         SEGMENT       ?PR?OS_PENDSV_HANDLER?PORT_8051S
  I:0044H         SEGMENT       ?STACK
  C:4ECEH         SEGMENT       ?PR?MPENDSV_FIFOPREEMPT?PORT_8051S
  C:644DH         SEGMENT       ?PR?_MPENDSV_FIFOLOADER?PORT_8051S
  C:644DH         PUBLIC        _MPENDSV_FIFOLOADER
  C:4C69H         SYMBOL        ?PROTECTING
  B:00D0H.6       SYMBOL        AC
  D:00E0H         SYMBOL        ACC
  D:00DEH         SYMBOL        ADCCFG
  D:00BCH         SYMBOL        ADC_CONTR
  D:00BDH         SYMBOL        ADC_RES
  D:00BEH         SYMBOL        ADC_RESL
  D:00EFH         SYMBOL        AUXINTIF
  D:008EH         SYMBOL        AUXR
  D:00F0H         SYMBOL        B
  D:00E6H         SYMBOL        CMPCR1
  D:00E7H         SYMBOL        CMPCR2
  B:00D0H.7       SYMBOL        CY
  D:0083H         SYMBOL        DPH
  D:00E5H         SYMBOL        DPH1
  D:0082H         SYMBOL        DPL
  D:00E4H         SYMBOL        DPL1
  D:00E3H         SYMBOL        DPS
  B:00A8H.7       SYMBOL        EA
  B:00A8H.5       SYMBOL        EADC
  B:00A8H.6       SYMBOL        ELVD
  B:00A8H.4       SYMBOL        ES
  B:00A8H.1       SYMBOL        ET0
  B:00A8H.3       SYMBOL        ET1
  B:00A8H.0       SYMBOL        EX0
  B:00A8H.2       SYMBOL        EX1
  B:00D0H.5       SYMBOL        F0
  B:00D0H.1       SYMBOL        F1
  C:645CH         SYMBOL        FAILED
  C:4ED9H         SYMBOL        FIFO_0
  C:4F3BH         SYMBOL        FIFO_1
  C:4F0BH         SYMBOL        FIFO_X_0
  C:4F0EH         SYMBOL        FIFO_X_1
  C:4F29H         SYMBOL        FIFO_X_10
  C:4F2CH         SYMBOL        FIFO_X_11
BL51 BANKED LINKER/LOCATER V6.22.2.0                                                  07/08/2024  03:11:28  PAGE 64


  C:4F2FH         SYMBOL        FIFO_X_12
  C:4F32H         SYMBOL        FIFO_X_13
  C:4F35H         SYMBOL        FIFO_X_14
  C:4F38H         SYMBOL        FIFO_X_15
  C:4F11H         SYMBOL        FIFO_X_2
  C:4F14H         SYMBOL        FIFO_X_3
  C:4F17H         SYMBOL        FIFO_X_4
  C:4F1AH         SYMBOL        FIFO_X_5
  C:4F1DH         SYMBOL        FIFO_X_6
  C:4F20H         SYMBOL        FIFO_X_7
  C:4F23H         SYMBOL        FIFO_X_8
  C:4F26H         SYMBOL        FIFO_X_9
  C:4C90H         SYMBOL        GETCURBSP
  C:4CB9H         SYMBOL        GETNEWBSP
  D:00C3H         SYMBOL        IAP_ADDRH
  D:00C4H         SYMBOL        IAP_ADDRL
  D:00C5H         SYMBOL        IAP_CMD
  D:00C7H         SYMBOL        IAP_CONTR
  D:00C2H         SYMBOL        IAP_DATA
  D:00F5H         SYMBOL        IAP_TPS
  D:00C6H         SYMBOL        IAP_TRIG
  D:00A8H         SYMBOL        IE
  B:0088H.1       SYMBOL        IE0
  B:0088H.3       SYMBOL        IE1
  D:00AFH         SYMBOL        IE2
  D:008FH         SYMBOL        INTCLKO
  D:00B8H         SYMBOL        IP
  D:00B5H         SYMBOL        IP2
  D:00B6H         SYMBOL        IP2H
  D:00DFH         SYMBOL        IP3
  D:00EEH         SYMBOL        IP3H
  D:00B7H         SYMBOL        IPH
  D:009DH         SYMBOL        IRCBAND
  D:009FH         SYMBOL        IRTRIM
  B:0088H.0       SYMBOL        IT0
  B:0088H.2       SYMBOL        IT1
  D:009EH         SYMBOL        LIRTRIM
  C:4ECEH         SYMBOL        MPENDSV_FIFOPREEMPT
  C:4C3CH         SYMBOL        OS_PENDSV_HANDLER
  B:00D0H.2       SYMBOL        OV
  B:00D0H.0       SYMBOL        P
  D:0080H         SYMBOL        P0
  B:0080H.0       SYMBOL        P00
  B:0080H.1       SYMBOL        P01
  B:0080H.2       SYMBOL        P02
  B:0080H.3       SYMBOL        P03
  B:0080H.4       SYMBOL        P04
  B:0080H.5       SYMBOL        P05
  B:0080H.6       SYMBOL        P06
  B:0080H.7       SYMBOL        P07
  D:0094H         SYMBOL        P0M0
  D:0093H         SYMBOL        P0M1
  D:0090H         SYMBOL        P1
  B:0090H.0       SYMBOL        P10
  B:0090H.1       SYMBOL        P11
  B:0090H.2       SYMBOL        P12
  B:0090H.3       SYMBOL        P13
BL51 BANKED LINKER/LOCATER V6.22.2.0                                                  07/08/2024  03:11:28  PAGE 65


  B:0090H.4       SYMBOL        P14
  B:0090H.5       SYMBOL        P15
  B:0090H.6       SYMBOL        P16
  B:0090H.7       SYMBOL        P17
  D:0092H         SYMBOL        P1M0
  D:0091H         SYMBOL        P1M1
  D:00A0H         SYMBOL        P2
  B:00A0H.0       SYMBOL        P20
  B:00A0H.1       SYMBOL        P21
  B:00A0H.2       SYMBOL        P22
  B:00A0H.3       SYMBOL        P23
  B:00A0H.4       SYMBOL        P24
  B:00A0H.5       SYMBOL        P25
  B:00A0H.6       SYMBOL        P26
  B:00A0H.7       SYMBOL        P27
  D:0096H         SYMBOL        P2M0
  D:0095H         SYMBOL        P2M1
  D:00B0H         SYMBOL        P3
  B:00B0H.0       SYMBOL        P30
  B:00B0H.1       SYMBOL        P31
  B:00B0H.2       SYMBOL        P32
  B:00B0H.3       SYMBOL        P33
  B:00B0H.4       SYMBOL        P34
  B:00B0H.5       SYMBOL        P35
  B:00B0H.6       SYMBOL        P36
  B:00B0H.7       SYMBOL        P37
  D:00B2H         SYMBOL        P3M0
  D:00B1H         SYMBOL        P3M1
  D:00C0H         SYMBOL        P4
  B:00C0H.0       SYMBOL        P40
  B:00C0H.1       SYMBOL        P41
  B:00C0H.2       SYMBOL        P42
  B:00C0H.3       SYMBOL        P43
  B:00C0H.4       SYMBOL        P44
  B:00C0H.5       SYMBOL        P45
  B:00C0H.6       SYMBOL        P46
  B:00C0H.7       SYMBOL        P47
  D:00B4H         SYMBOL        P4M0
  D:00B3H         SYMBOL        P4M1
  D:00C8H         SYMBOL        P5
  B:00C8H.0       SYMBOL        P50
  B:00C8H.1       SYMBOL        P51
  B:00C8H.2       SYMBOL        P52
  B:00C8H.3       SYMBOL        P53
  B:00C8H.4       SYMBOL        P54
  B:00C8H.5       SYMBOL        P55
  B:00C8H.6       SYMBOL        P56
  B:00C8H.7       SYMBOL        P57
  D:00CAH         SYMBOL        P5M0
  D:00C9H         SYMBOL        P5M1
  D:00E8H         SYMBOL        P6
  B:00E8H.0       SYMBOL        P60
  B:00E8H.1       SYMBOL        P61
  B:00E8H.2       SYMBOL        P62
  B:00E8H.3       SYMBOL        P63
  B:00E8H.4       SYMBOL        P64
  B:00E8H.5       SYMBOL        P65
BL51 BANKED LINKER/LOCATER V6.22.2.0                                                  07/08/2024  03:11:28  PAGE 66


  B:00E8H.6       SYMBOL        P66
  B:00E8H.7       SYMBOL        P67
  D:00CCH         SYMBOL        P6M0
  D:00CBH         SYMBOL        P6M1
  D:00F8H         SYMBOL        P7
  B:00F8H.0       SYMBOL        P70
  B:00F8H.1       SYMBOL        P71
  B:00F8H.2       SYMBOL        P72
  B:00F8H.3       SYMBOL        P73
  B:00F8H.4       SYMBOL        P74
  B:00F8H.5       SYMBOL        P75
  B:00F8H.6       SYMBOL        P76
  B:00F8H.7       SYMBOL        P77
  D:00E2H         SYMBOL        P7M0
  D:00E1H         SYMBOL        P7M1
  B:00B8H.5       SYMBOL        PADC
  D:0087H         SYMBOL        PCON
  D:00DCH         SYMBOL        PLLCR
  B:00B8H.6       SYMBOL        PLVD
  N:0000H         SYMBOL        PORT_8051S
  B:00B8H.7       SYMBOL        PPCA
  C:4C79H         SYMBOL        PROTECTING
  B:00B8H.4       SYMBOL        PS
  D:00D0H         SYMBOL        PSW
  B:00B8H.1       SYMBOL        PT0
  B:00B8H.3       SYMBOL        PT1
  B:00B8H.0       SYMBOL        PX0
  B:00B8H.2       SYMBOL        PX1
  D:00A2H         SYMBOL        P_SW1
  D:00BAH         SYMBOL        P_SW2
  B:0098H.2       SYMBOL        RB8
  B:0098H.4       SYMBOL        REN
  C:4CA0H         SYMBOL        RESTORE
  C:4CC4H         SYMBOL        RESTORESTACK
  C:4CCAH         SYMBOL        RETURN
  B:0098H.0       SYMBOL        RI
  B:00D0H.3       SYMBOL        RS0
  B:00D0H.4       SYMBOL        RS1
  D:00FFH         SYMBOL        RSTCFG
  D:009BH         SYMBOL        S2BUF
  D:009AH         SYMBOL        S2CON
  D:00ADH         SYMBOL        S3BUF
  D:00ACH         SYMBOL        S3CON
  D:0085H         SYMBOL        S4BUF
  D:0084H         SYMBOL        S4CON
  D:00A9H         SYMBOL        SADDR
  D:00B9H         SYMBOL        SADEN
  C:4C9AH         SYMBOL        SAVESTACK
  D:0099H         SYMBOL        SBUF
  D:0098H         SYMBOL        SCON
  B:0098H.7       SYMBOL        SM0
  B:0098H.6       SYMBOL        SM1
  B:0098H.5       SYMBOL        SM2
  D:0081H         SYMBOL        SP
  D:00CEH         SYMBOL        SPCTL
  D:00CFH         SYMBOL        SPDAT
  D:00CDH         SYMBOL        SPSTAT
BL51 BANKED LINKER/LOCATER V6.22.2.0                                                  07/08/2024  03:11:28  PAGE 67


  D:00D6H         SYMBOL        T2H
  D:00D7H         SYMBOL        T2L
  D:00D4H         SYMBOL        T3H
  D:00D5H         SYMBOL        T3L
  D:00D2H         SYMBOL        T4H
  D:00D3H         SYMBOL        T4L
  D:00D1H         SYMBOL        T4T3M
  D:00AEH         SYMBOL        TA
  B:0098H.3       SYMBOL        TB8
  D:0088H         SYMBOL        TCON
  B:0088H.5       SYMBOL        TF0
  B:0088H.7       SYMBOL        TF1
  D:008CH         SYMBOL        TH0
  D:008DH         SYMBOL        TH1
  B:0098H.1       SYMBOL        TI
  D:008AH         SYMBOL        TL0
  D:008BH         SYMBOL        TL1
  D:0089H         SYMBOL        TMOD
  B:0088H.4       SYMBOL        TR0
  B:0088H.6       SYMBOL        TR1
  D:00FCH         SYMBOL        USBADR
  D:00DCH         SYMBOL        USBCLK
  D:00F4H         SYMBOL        USBCON
  D:00ECH         SYMBOL        USBDAT
  D:00C1H         SYMBOL        WDT_CONTR
  D:00ABH         SYMBOL        WKTCH
  D:00AAH         SYMBOL        WKTCL
  C:0003H         LINE#         51
  C:4C3CH         LINE#         61
  C:4C3EH         LINE#         62
  C:4C40H         LINE#         63
  C:4C42H         LINE#         64
  C:4C44H         LINE#         65
  C:4C46H         LINE#         69
  C:4C48H         LINE#         70
  C:4C4AH         LINE#         71
  C:4C4CH         LINE#         72
  C:4C4EH         LINE#         73
  C:4C50H         LINE#         74
  C:4C52H         LINE#         75
  C:4C54H         LINE#         76
  C:4C56H         LINE#         78
  C:4C58H         LINE#         77
  C:4C59H         LINE#         82
  C:4C5BH         LINE#         83
  C:4C5DH         LINE#         97
  C:4C5FH         LINE#         99
  C:4C62H         LINE#         101
  C:4C63H         LINE#         102
  C:4C64H         LINE#         103
  C:4C66H         LINE#         104
  C:4C69H         LINE#         105
  C:4C6AH         LINE#         106
  C:4C6CH         LINE#         106
  C:4C6FH         LINE#         111
  C:4C71H         LINE#         109
  C:4C73H         LINE#         117
BL51 BANKED LINKER/LOCATER V6.22.2.0                                                  07/08/2024  03:11:28  PAGE 68


  C:4C74H         LINE#         118
  C:4C76H         LINE#         119
  C:4C77H         LINE#         120
  C:4C79H         LINE#         129
  C:4C7CH         LINE#         130
  C:4C7FH         LINE#         131
  C:4C81H         LINE#         132
  C:4C83H         LINE#         133
  C:4C84H         LINE#         134
  C:4C85H         LINE#         136
  C:4C87H         LINE#         137
  C:4C89H         LINE#         138
  C:4C8BH         LINE#         139
  C:4C8DH         LINE#         140
  C:4C8FH         LINE#         141
  C:4C90H         LINE#         142
  C:4C91H         LINE#         143
  C:4C92H         LINE#         144
  C:4C93H         LINE#         145
  C:4C94H         LINE#         146
  C:4C96H         LINE#         147
  C:4C98H         LINE#         149
  C:4C9AH         LINE#         151
  C:4C9BH         LINE#         152
  C:4C9CH         LINE#         153
  C:4C9DH         LINE#         154
  C:4C9EH         LINE#         155
  C:4CA0H         LINE#         202
  C:4CA3H         LINE#         203
  C:4CA6H         LINE#         205
  C:4CA9H         LINE#         206
  C:4CACH         LINE#         207
  C:4CADH         LINE#         208
  C:4CAEH         LINE#         210
  C:4CB0H         LINE#         211
  C:4CB2H         LINE#         212
  C:4CB4H         LINE#         213
  C:4CB6H         LINE#         214
  C:4CB8H         LINE#         215
  C:4CB9H         LINE#         216
  C:4CBAH         LINE#         217
  C:4CBBH         LINE#         218
  C:4CBCH         LINE#         219
  C:4CBDH         LINE#         220
  C:4CBFH         LINE#         221
  C:4CC1H         LINE#         223
  C:4CC4H         LINE#         225
  C:4CC5H         LINE#         226
  C:4CC7H         LINE#         227
  C:4CC8H         LINE#         228
  C:4CCAH         LINE#         282
  C:4CCCH         LINE#         287
  C:4CCEH         LINE#         288
  C:4CD0H         LINE#         289
  C:4CD2H         LINE#         290
  C:4CD4H         LINE#         291
  C:4CD6H         LINE#         292
BL51 BANKED LINKER/LOCATER V6.22.2.0                                                  07/08/2024  03:11:28  PAGE 69


  C:4CD8H         LINE#         293
  C:4CDAH         LINE#         295
  C:4CDCH         LINE#         296
  C:4CDEH         LINE#         297
  C:4CE0H         LINE#         298
  C:4CE2H         LINE#         299
  C:4CE4H         LINE#         301
  C:4ECEH         LINE#         405
  C:4ECFH         LINE#         406
  C:4ED1H         LINE#         407
  C:4ED4H         LINE#         408
  C:4ED6H         LINE#         409
  C:4ED9H         LINE#         411
  C:4EDCH         LINE#         412
  C:4EDFH         LINE#         413
  C:4EE2H         LINE#         414
  C:4EE5H         LINE#         415
  C:4EE8H         LINE#         416
  C:4EEBH         LINE#         417
  C:4EEEH         LINE#         418
  C:4EF1H         LINE#         416
  C:4EF4H         LINE#         421
  C:4EF7H         LINE#         422
  C:4EFAH         LINE#         423
  C:4EFDH         LINE#         424
  C:4F00H         LINE#         425
  C:4F03H         LINE#         426
  C:4F06H         LINE#         427
  C:4F09H         LINE#         459
  C:4F0AH         LINE#         460
  C:4F0BH         LINE#         462
  C:4F0DH         LINE#         463
  C:4F0EH         LINE#         464
  C:4F10H         LINE#         465
  C:4F11H         LINE#         466
  C:4F13H         LINE#         467
  C:4F14H         LINE#         468
  C:4F16H         LINE#         469
  C:4F17H         LINE#         470
  C:4F19H         LINE#         471
  C:4F1AH         LINE#         472
  C:4F1CH         LINE#         473
  C:4F1DH         LINE#         474
  C:4F1FH         LINE#         475
  C:4F20H         LINE#         476
  C:4F22H         LINE#         477
  C:4F23H         LINE#         475
  C:4F25H         LINE#         480
  C:4F26H         LINE#         481
  C:4F28H         LINE#         482
  C:4F29H         LINE#         483
  C:4F2BH         LINE#         484
  C:4F2CH         LINE#         485
  C:4F2EH         LINE#         486
  C:4F2FH         LINE#         487
  C:4F31H         LINE#         488
  C:4F32H         LINE#         489
BL51 BANKED LINKER/LOCATER V6.22.2.0                                                  07/08/2024  03:11:28  PAGE 70


  C:4F34H         LINE#         490
  C:4F35H         LINE#         491
  C:4F37H         LINE#         492
  C:4F38H         LINE#         493
  C:4F3AH         LINE#         494
  C:4F3BH         LINE#         551
  C:4F3EH         LINE#         552
  C:4F41H         LINE#         553
  C:4F44H         LINE#         554
  C:4F47H         LINE#         555
  C:4F4AH         LINE#         556
  C:4F4DH         LINE#         557
  C:4F50H         LINE#         558
  C:4F53H         LINE#         556
  C:4F56H         LINE#         561
  C:4F59H         LINE#         562
  C:4F5CH         LINE#         563
  C:4F5FH         LINE#         564
  C:4F62H         LINE#         565
  C:4F65H         LINE#         566
  C:4F68H         LINE#         567
  C:4F6BH         LINE#         599
  C:4F6CH         LINE#         600
  C:644DH         LINE#         610
  C:6450H         LINE#         611
  C:6452H         LINE#         612
  C:6454H         LINE#         613
  C:6455H         LINE#         614
  C:6456H         LINE#         615
  C:6457H         LINE#         616
  C:6458H         LINE#         617
  C:6459H         LINE#         618
  C:645BH         LINE#         619
  C:645CH         LINE#         620
  C:645DH         LINE#         621
  -------         ENDMOD        PORT_8051S

  -------         MODULE        ?C_STARTUP
  C:4E2EH         SEGMENT       ?C_C51STARTUP
  I:0044H         SEGMENT       ?STACK
  C:0000H         PUBLIC        ?C_STARTUP
  N:0100H         SYMBOL        IDATALEN
  C:4E31H         SYMBOL        IDATALOOP
  D:0081H         SYMBOL        SP
  C:4E2EH         SYMBOL        STARTUP1
  N:0001H         SYMBOL        XBPSTACK
  N:2000H         SYMBOL        XBPSTACKTOP
  N:2000H         SYMBOL        XDATALEN
  C:4E3CH         SYMBOL        XDATALOOP
  N:0000H         SYMBOL        XDATASTART
  C:0000H         LINE#         66
  C:4E2EH         LINE#         73
  C:4E30H         LINE#         74
  C:4E31H         LINE#         75
  C:4E32H         LINE#         76
  C:4E34H         LINE#         80
  C:4E37H         LINE#         81
BL51 BANKED LINKER/LOCATER V6.22.2.0                                                  07/08/2024  03:11:28  PAGE 71


  C:4E39H         LINE#         85
  C:4E3BH         LINE#         87
  C:4E3CH         LINE#         88
  C:4E3DH         LINE#         89
  C:4E3EH         LINE#         90
  C:4E40H         LINE#         91
  C:4E42H         LINE#         95
  C:4E45H         LINE#         96
  C:4E48H         LINE#         99
  C:4E4BH         LINE#         101
  -------         ENDMOD        ?C_STARTUP

  -------         MODULE        TASKMGR
  C:0000H         SYMBOL        _ICE_DUMMY_
  C:5438H         PUBLIC        UART2_Isr
  D:0080H         PUBLIC        P0
  D:0090H         PUBLIC        P1
  D:00A0H         PUBLIC        P2
  D:00B0H         PUBLIC        P3
  D:00C0H         PUBLIC        P4
  D:00C8H         PUBLIC        P5
  D:00E8H         PUBLIC        P6
  D:00F8H         PUBLIC        P7
  D:00A8H         PUBLIC        IE
  D:00B8H         PUBLIC        IP
  D:0098H         PUBLIC        SCON
  D:0088H         PUBLIC        TCON
  D:009BH         PUBLIC        S2BUF
  D:009AH         PUBLIC        S2CON
  D:00D0H         PUBLIC        PSW
  -------         PROC          UART2_ISR
  C:5438H         LINE#         16
  C:5447H         LINE#         18
  C:544CH         LINE#         19
  C:544FH         LINE#         20
  C:5458H         LINE#         21
  C:546AH         LINE#         22
  C:546CH         LINE#         23
  C:546CH         LINE#         24
  C:546EH         LINE#         25
  C:546EH         LINE#         26
  C:546EH         LINE#         27
  C:5473H         LINE#         28
  C:5476H         LINE#         29
  C:548CH         LINE#         30
  C:549EH         LINE#         31
  C:549EH         LINE#         32
  C:54A0H         LINE#         33
  C:54A0H         LINE#         34
  -------         ENDPROC       UART2_ISR
  -------         ENDMOD        TASKMGR

  -------         MODULE        LED
  C:0000H         SYMBOL        _ICE_DUMMY_
  D:0080H         PUBLIC        P0
  D:0090H         PUBLIC        P1
  D:00A0H         PUBLIC        P2
BL51 BANKED LINKER/LOCATER V6.22.2.0                                                  07/08/2024  03:11:28  PAGE 72


  D:00B0H         PUBLIC        P3
  D:00C0H         PUBLIC        P4
  D:00C8H         PUBLIC        P5
  D:00E8H         PUBLIC        P6
  D:00F8H         PUBLIC        P7
  D:00A8H         PUBLIC        IE
  D:00B8H         PUBLIC        IP
  B:00A0H.0       PUBLIC        P20
  B:00A0H.1       PUBLIC        P21
  B:00A0H.2       PUBLIC        P22
  D:0098H         PUBLIC        SCON
  B:00B0H.2       PUBLIC        P32
  B:00A0H.3       PUBLIC        P23
  D:0088H         PUBLIC        TCON
  B:00B0H.3       PUBLIC        P33
  B:00A0H.4       PUBLIC        P24
  B:00B0H.4       PUBLIC        P34
  B:00A0H.5       PUBLIC        P25
  B:00B0H.5       PUBLIC        P35
  B:00A0H.6       PUBLIC        P26
  B:00A0H.7       PUBLIC        P27
  C:45C8H         PUBLIC        led_task_1
  C:606EH         PUBLIC        led_task_2
  D:00D0H         PUBLIC        PSW
  -------         PROC          LED_TASK_1
  C:45C8H         LINE#         5
  C:45C8H         LINE#         6
  C:45C8H         LINE#         7
  C:45D2H         LINE#         8
  C:45D4H         LINE#         9
  C:45DEH         LINE#         10
  C:45E0H         LINE#         11
  C:45EAH         LINE#         12
  C:45ECH         LINE#         13
  C:45F6H         LINE#         14
  C:45F8H         LINE#         15
  C:4602H         LINE#         16
  C:4604H         LINE#         17
  C:460EH         LINE#         18
  C:4610H         LINE#         19
  C:461AH         LINE#         20
  C:461CH         LINE#         21
  C:4626H         LINE#         22
  C:4628H         LINE#         24
  C:4632H         LINE#         25
  C:4634H         LINE#         26
  C:463EH         LINE#         27
  C:4640H         LINE#         28
  C:464AH         LINE#         29
  C:464CH         LINE#         30
  C:4656H         LINE#         31
  C:4658H         LINE#         33
  C:4662H         LINE#         34
  C:4664H         LINE#         35
  C:466EH         LINE#         36
  C:4670H         LINE#         37
  C:467AH         LINE#         38
BL51 BANKED LINKER/LOCATER V6.22.2.0                                                  07/08/2024  03:11:28  PAGE 73


  C:467CH         LINE#         39
  C:4686H         LINE#         40
  C:4688H         LINE#         41
  C:4692H         LINE#         42
  C:4694H         LINE#         43
  C:469EH         LINE#         44
  C:46A0H         LINE#         45
  C:46AAH         LINE#         46
  C:46ACH         LINE#         47
  C:46B6H         LINE#         48
  C:46B8H         LINE#         49
  -------         ENDPROC       LED_TASK_1
  -------         PROC          LED_TASK_2
  C:606EH         LINE#         51
  C:606EH         LINE#         52
  C:606EH         LINE#         53
  C:6078H         LINE#         54
  C:607AH         LINE#         55
  C:6084H         LINE#         56
  C:6086H         LINE#         57
  C:6090H         LINE#         58
  C:6092H         LINE#         59
  C:609CH         LINE#         60
  C:609EH         LINE#         61
  -------         ENDPROC       LED_TASK_2
  -------         ENDMOD        LED

  -------         MODULE        TEST_XWTB_RESSUS
  C:0000H         SYMBOL        _ICE_DUMMY_
  D:0080H         PUBLIC        P0
  D:0090H         PUBLIC        P1
  D:00A0H         PUBLIC        P2
  D:00B0H         PUBLIC        P3
  D:00C0H         PUBLIC        P4
  D:00C8H         PUBLIC        P5
  D:00E8H         PUBLIC        P6
  D:00F8H         PUBLIC        P7
  D:00A8H         PUBLIC        IE
  B:0026H.4       PUBLIC        u_resume_task_2
  D:00B8H         PUBLIC        IP
  X:0027H         PUBLIC        u_taskhandle_task_1
  X:0029H         PUBLIC        u_taskhandle_task_2
  B:0080H.1       PUBLIC        P01
  B:0080H.2       PUBLIC        P02
  D:0098H         PUBLIC        SCON
  D:0088H         PUBLIC        TCON
  B:0088H.1       PUBLIC        IE0
  D:00AFH         PUBLIC        IE2
  C:579AH         PUBLIC        TIME_3
  C:5AFFH         PUBLIC        start_hook
  C:615BH         PUBLIC        task_1
  C:5D65H         PUBLIC        task_2
  X:002BH         SYMBOL        u_taskstack_task_1
  X:006BH         SYMBOL        u_taskstack_task_2
  D:00D4H         PUBLIC        T3H
  X:00ABH         PUBLIC        u_taskhand_task_1
  X:00CCH         PUBLIC        u_taskhand_task_2
BL51 BANKED LINKER/LOCATER V6.22.2.0                                                  07/08/2024  03:11:28  PAGE 74


  D:00D5H         PUBLIC        T3L
  D:00D1H         PUBLIC        T4T3M
  D:00EFH         PUBLIC        AUXINTIF
  D:00D0H         PUBLIC        PSW
  -------         PROC          TASK_1
  -------         DO            
  X:0020H         SYMBOL        i
  -------         ENDDO         
  C:615BH         LINE#         33
  C:615BH         LINE#         34
  C:615BH         LINE#         36
  C:615BH         LINE#         37
  C:615DH         LINE#         38
  C:6179H         LINE#         39
  C:617CH         LINE#         40
  C:617CH         LINE#         41
  -------         ENDPROC       TASK_1
  -------         PROC          TASK_2
  -------         DO            
  X:0022H         SYMBOL        i
  -------         ENDDO         
  C:5D65H         LINE#         49
  C:5D65H         LINE#         50
  C:5D65H         LINE#         52
  C:5D65H         LINE#         53
  C:5D67H         LINE#         54
  C:5D83H         LINE#         55
  C:5D86H         LINE#         57
  C:5D88H         LINE#         58
  C:5D96H         LINE#         59
  C:5D96H         LINE#         60
  -------         ENDPROC       TASK_2
  -------         PROC          TIME_3
  -------         DO            
  X:0024H         SYMBOL        u_psv
  -------         ENDDO         
  C:579AH         LINE#         68
  C:57B7H         LINE#         70
  C:57BAH         LINE#         71
  C:57BCH         LINE#         74
  C:57E0H         LINE#         79
  -------         ENDPROC       TIME_3
  -------         PROC          START_HOOK
  C:5AFFH         LINE#         85
  C:5AFFH         LINE#         86
  C:5AFFH         LINE#         87
  C:5B01H         LINE#         88
  C:5B03H         LINE#         89
  C:5B13H         LINE#         90
  C:5B23H         LINE#         92
  C:5B2CH         LINE#         93
  C:5B35H         LINE#         95
  C:5B4AH         LINE#         96
  -------         ENDPROC       START_HOOK
  -------         ENDMOD        TEST_XWTB_RESSUS

  -------         MODULE        TEST_XWTB_CLRBLK
BL51 BANKED LINKER/LOCATER V6.22.2.0                                                  07/08/2024  03:11:28  PAGE 75


  C:0000H         SYMBOL        _ICE_DUMMY_
  D:0080H         PUBLIC        P0
  D:0090H         PUBLIC        P1
  D:00A0H         PUBLIC        P2
  D:00B0H         PUBLIC        P3
  D:00C0H         PUBLIC        P4
  D:00C8H         PUBLIC        P5
  D:00E8H         PUBLIC        P6
  D:00F8H         PUBLIC        P7
  D:00A8H         PUBLIC        IE
  D:00B8H         PUBLIC        IP
  D:0098H         PUBLIC        SCON
  D:0088H         PUBLIC        TCON
  D:00D0H         PUBLIC        PSW
  -------         ENDMOD        TEST_XWTB_CLRBLK

  -------         MODULE        TEST_XWTB_BIN
  C:0000H         SYMBOL        _ICE_DUMMY_
  D:0080H         PUBLIC        P0
  D:0090H         PUBLIC        P1
  D:00A0H         PUBLIC        P2
  D:00B0H         PUBLIC        P3
  D:00C0H         PUBLIC        P4
  D:00C8H         PUBLIC        P5
  D:00E8H         PUBLIC        P6
  D:00F8H         PUBLIC        P7
  D:00A8H         PUBLIC        IE
  D:00B8H         PUBLIC        IP
  D:0098H         PUBLIC        SCON
  D:0088H         PUBLIC        TCON
  D:00D0H         PUBLIC        PSW
  -------         ENDMOD        TEST_XWTB_BIN

  -------         MODULE        TEST_XWTB_SEM
  C:0000H         SYMBOL        _ICE_DUMMY_
  D:0080H         PUBLIC        P0
  D:0090H         PUBLIC        P1
  D:00A0H         PUBLIC        P2
  D:00B0H         PUBLIC        P3
  D:00C0H         PUBLIC        P4
  D:00C8H         PUBLIC        P5
  D:00E8H         PUBLIC        P6
  D:00F8H         PUBLIC        P7
  D:00A8H         PUBLIC        IE
  D:00B8H         PUBLIC        IP
  D:0098H         PUBLIC        SCON
  D:0088H         PUBLIC        TCON
  D:00D0H         PUBLIC        PSW
  -------         ENDMOD        TEST_XWTB_SEM

  -------         MODULE        TEST_XWTB_GROUP
  C:0000H         SYMBOL        _ICE_DUMMY_
  D:0080H         PUBLIC        P0
  D:0090H         PUBLIC        P1
  D:00A0H         PUBLIC        P2
  D:00B0H         PUBLIC        P3
  D:00C0H         PUBLIC        P4
BL51 BANKED LINKER/LOCATER V6.22.2.0                                                  07/08/2024  03:11:28  PAGE 76


  D:00C8H         PUBLIC        P5
  D:00E8H         PUBLIC        P6
  D:00F8H         PUBLIC        P7
  D:00A8H         PUBLIC        IE
  D:00B8H         PUBLIC        IP
  D:0098H         PUBLIC        SCON
  D:0088H         PUBLIC        TCON
  D:00D0H         PUBLIC        PSW
  -------         ENDMOD        TEST_XWTB_GROUP

  -------         MODULE        TEST_XWTB_FETION
  C:0000H         SYMBOL        _ICE_DUMMY_
  D:0080H         PUBLIC        P0
  D:0090H         PUBLIC        P1
  D:00A0H         PUBLIC        P2
  D:00B0H         PUBLIC        P3
  D:00C0H         PUBLIC        P4
  D:00C8H         PUBLIC        P5
  D:00E8H         PUBLIC        P6
  D:00F8H         PUBLIC        P7
  D:00A8H         PUBLIC        IE
  D:00B8H         PUBLIC        IP
  D:0098H         PUBLIC        SCON
  D:0088H         PUBLIC        TCON
  D:00D0H         PUBLIC        PSW
  -------         ENDMOD        TEST_XWTB_FETION

  -------         MODULE        TEST_XWTB_TASKMSG
  C:0000H         SYMBOL        _ICE_DUMMY_
  D:0080H         PUBLIC        P0
  D:0090H         PUBLIC        P1
  D:00A0H         PUBLIC        P2
  D:00B0H         PUBLIC        P3
  D:00C0H         PUBLIC        P4
  D:00C8H         PUBLIC        P5
  D:00E8H         PUBLIC        P6
  D:00F8H         PUBLIC        P7
  D:00A8H         PUBLIC        IE
  D:00B8H         PUBLIC        IP
  D:0098H         PUBLIC        SCON
  D:0088H         PUBLIC        TCON
  D:00D0H         PUBLIC        PSW
  -------         ENDMOD        TEST_XWTB_TASKMSG

  -------         MODULE        TEST_XWTB_MAILBOX
  C:0000H         SYMBOL        _ICE_DUMMY_
  D:0080H         PUBLIC        P0
  D:0090H         PUBLIC        P1
  D:00A0H         PUBLIC        P2
  D:00B0H         PUBLIC        P3
  D:00C0H         PUBLIC        P4
  D:00C8H         PUBLIC        P5
  D:00E8H         PUBLIC        P6
  D:00F8H         PUBLIC        P7
  D:00A8H         PUBLIC        IE
  D:00B8H         PUBLIC        IP
  D:0098H         PUBLIC        SCON
BL51 BANKED LINKER/LOCATER V6.22.2.0                                                  07/08/2024  03:11:28  PAGE 77


  D:0088H         PUBLIC        TCON
  D:00D0H         PUBLIC        PSW
  -------         ENDMOD        TEST_XWTB_MAILBOX

  -------         MODULE        TEST_XWTB_QUEUE
  C:0000H         SYMBOL        _ICE_DUMMY_
  D:0080H         PUBLIC        P0
  D:0090H         PUBLIC        P1
  D:00A0H         PUBLIC        P2
  D:00B0H         PUBLIC        P3
  D:00C0H         PUBLIC        P4
  D:00C8H         PUBLIC        P5
  D:00E8H         PUBLIC        P6
  D:00F8H         PUBLIC        P7
  D:00A8H         PUBLIC        IE
  D:00B8H         PUBLIC        IP
  D:0098H         PUBLIC        SCON
  D:0088H         PUBLIC        TCON
  D:00D0H         PUBLIC        PSW
  -------         ENDMOD        TEST_XWTB_QUEUE

  -------         MODULE        TEST_INT0DELAY
  C:0000H         SYMBOL        _ICE_DUMMY_
  D:0080H         PUBLIC        P0
  D:0090H         PUBLIC        P1
  D:00A0H         PUBLIC        P2
  D:00B0H         PUBLIC        P3
  D:00C0H         PUBLIC        P4
  D:00C8H         PUBLIC        P5
  D:00E8H         PUBLIC        P6
  D:00F8H         PUBLIC        P7
  D:00A8H         PUBLIC        IE
  D:00B8H         PUBLIC        IP
  D:0098H         PUBLIC        SCON
  D:0088H         PUBLIC        TCON
  D:00D0H         PUBLIC        PSW
  -------         ENDMOD        TEST_INT0DELAY

  -------         MODULE        HMACMD5
  C:0000H         SYMBOL        _ICE_DUMMY_
  D:0080H         PUBLIC        P0
  D:0090H         PUBLIC        P1
  D:00A0H         PUBLIC        P2
  D:00B0H         PUBLIC        P3
  D:00C0H         PUBLIC        P4
  D:00C8H         PUBLIC        P5
  D:00E8H         PUBLIC        P6
  D:00F8H         PUBLIC        P7
  D:00A8H         PUBLIC        IE
  D:00B8H         PUBLIC        IP
  D:0098H         PUBLIC        SCON
  D:0088H         PUBLIC        TCON
  D:00D0H         PUBLIC        PSW
  -------         ENDMOD        HMACMD5

  -------         MODULE        TEST_MALLOC
  C:0000H         SYMBOL        _ICE_DUMMY_
BL51 BANKED LINKER/LOCATER V6.22.2.0                                                  07/08/2024  03:11:28  PAGE 78


  D:0080H         PUBLIC        P0
  D:0090H         PUBLIC        P1
  D:00A0H         PUBLIC        P2
  D:00B0H         PUBLIC        P3
  D:00C0H         PUBLIC        P4
  D:00C8H         PUBLIC        P5
  D:00E8H         PUBLIC        P6
  D:00F8H         PUBLIC        P7
  D:00A8H         PUBLIC        IE
  D:00B8H         PUBLIC        IP
  D:0098H         PUBLIC        SCON
  D:0088H         PUBLIC        TCON
  D:00D0H         PUBLIC        PSW
  -------         ENDMOD        TEST_MALLOC

  -------         MODULE        TEST_C51XBP
  C:0000H         SYMBOL        _ICE_DUMMY_
  D:0080H         PUBLIC        P0
  D:0090H         PUBLIC        P1
  D:00A0H         PUBLIC        P2
  D:00B0H         PUBLIC        P3
  D:00C0H         PUBLIC        P4
  D:00C8H         PUBLIC        P5
  D:00E8H         PUBLIC        P6
  D:00F8H         PUBLIC        P7
  D:00A8H         PUBLIC        IE
  D:00B8H         PUBLIC        IP
  D:0098H         PUBLIC        SCON
  D:0088H         PUBLIC        TCON
  D:00D0H         PUBLIC        PSW
  -------         ENDMOD        TEST_C51XBP

  -------         MODULE        ?C?COPY
  C:1527H         PUBLIC        ?C?COPY
  -------         ENDMOD        ?C?COPY

  -------         MODULE        ?C?CLDPTR
  C:154DH         PUBLIC        ?C?CLDPTR
  -------         ENDMOD        ?C?CLDPTR

  -------         MODULE        ?C?CLDOPTR
  C:1566H         PUBLIC        ?C?CLDOPTR
  -------         ENDMOD        ?C?CLDOPTR

  -------         MODULE        ?C?CSTPTR
  C:1593H         PUBLIC        ?C?CSTPTR
  -------         ENDMOD        ?C?CSTPTR

  -------         MODULE        ?C?IMUL
  C:15A5H         PUBLIC        ?C?IMUL
  -------         ENDMOD        ?C?IMUL

  -------         MODULE        ?C?UIDIV
  C:15B7H         PUBLIC        ?C?UIDIV
  -------         ENDMOD        ?C?UIDIV

  -------         MODULE        ?C?IILDX
BL51 BANKED LINKER/LOCATER V6.22.2.0                                                  07/08/2024  03:11:28  PAGE 79


  C:160CH         PUBLIC        ?C?IILDX
  -------         ENDMOD        ?C?IILDX

  -------         MODULE        ?C?ILDIX
  C:1622H         PUBLIC        ?C?ILDIX
  -------         ENDMOD        ?C?ILDIX

  -------         MODULE        ?C?LMUL
  C:1638H         PUBLIC        ?C?LMUL
  -------         ENDMOD        ?C?LMUL

  -------         MODULE        ?C?ULDIV
  C:16C3H         PUBLIC        ?C?ULDIV
  -------         ENDMOD        ?C?ULDIV

  -------         MODULE        ?C?LNOT
  C:1755H         PUBLIC        ?C?LNOT
  -------         ENDMOD        ?C?LNOT

  -------         MODULE        ?C?LNEG
  C:1762H         PUBLIC        ?C?LNEG
  -------         ENDMOD        ?C?LNEG

  -------         MODULE        ?C?ULCMP
  C:1770H         PUBLIC        ?C?ULCMP
  -------         ENDMOD        ?C?ULCMP

  -------         MODULE        ?C?LSTXDATA
  C:1781H         PUBLIC        ?C?LSTXDATA
  -------         ENDMOD        ?C?LSTXDATA

  -------         MODULE        ?C?LSTKXDATA
  C:178DH         PUBLIC        ?C?LSTKXDATA
  -------         ENDMOD        ?C?LSTKXDATA

  -------         MODULE        ?C?CCASE
  C:17BEH         PUBLIC        ?C?CCASE
  -------         ENDMOD        ?C?CCASE

  -------         MODULE        ?C?ICALL
  C:17E4H         PUBLIC        ?C?ICALL
  C:17E8H         PUBLIC        ?C?ICALL2
  -------         ENDMOD        ?C?ICALL

  -------         MODULE        ?C_XBP
  D:0041H         PUBLIC        ?C_XBP
  -------         ENDMOD        ?C_XBP

  -------         MODULE        ?C?LIMUL
  C:17EAH         PUBLIC        ?C?LIMUL
  -------         ENDMOD        ?C?LIMUL

  -------         MODULE        PRINTF
  X:0587H         PUBLIC        ?_PRINTF517?BYTE
  X:0587H         PUBLIC        ?_PRINTF?BYTE
  X:0587H         PUBLIC        ?_SPRINTF517?BYTE
  X:0587H         PUBLIC        ?_SPRINTF?BYTE
BL51 BANKED LINKER/LOCATER V6.22.2.0                                                  07/08/2024  03:11:28  PAGE 80


  C:2AEDH         PUBLIC        _PRINTF
  C:2AEDH         PUBLIC        _PRINTF517
  C:2AE7H         PUBLIC        _SPRINTF
  C:2AE7H         PUBLIC        _SPRINTF517
  -------         ENDMOD        PRINTF

  -------         MODULE        ?C?STRCMP
  C:1995H         PUBLIC        ?C?STRCMP
  -------         ENDMOD        ?C?STRCMP

  -------         MODULE        ?C?STRCPY
  C:1A7EH         PUBLIC        ?C?STRCPY
  -------         ENDMOD        ?C?STRCPY

  -------         MODULE        STRLEN
  C:63CCH         PUBLIC        _STRLEN
  -------         ENDMOD        STRLEN

  -------         MODULE        ?C?MEMCMP
  C:1C21H         PUBLIC        ?C?MEMCMP
  -------         ENDMOD        ?C?MEMCMP

  -------         MODULE        MALLOC
  C:487FH         PUBLIC        _malloc
  -------         ENDMOD        MALLOC

  -------         MODULE        INIT_MEM
  X:05D9H         PUBLIC        __mem_avail__
  C:5DA2H         PUBLIC        _init_mempool
  -------         ENDMOD        INIT_MEM

  -------         MODULE        FREE
  C:3EF4H         PUBLIC        _free
  -------         ENDMOD        FREE

  -------         MODULE        ?C?PLDIXDATA
  C:1C45H         PUBLIC        ?C?PLDIXDATA
  -------         ENDMOD        ?C?PLDIXDATA

  -------         MODULE        ?C?PSTXDATA
  C:1C5CH         PUBLIC        ?C?PSTXDATA
  -------         ENDMOD        ?C?PSTXDATA

  -------         MODULE        PUTCHAR
  C:625CH         PUBLIC        _PUTCHAR
  -------         ENDMOD        PUTCHAR

Program Size: data=68.5 xdata=1611 code=25895
LINK/LOCATE RUN COMPLETE.  0 WARNING(S),  0 ERROR(S)
